 CoreServer

 Timestamp is 53ecd31c (Thu Aug 14 22:17:48 2014)

 Preferred load address is 10000000

 Start         Length     Name                   Class
 0001:00000000 00072cc2H .text                   CODE
 0001:00072cd0 00001edeH .text$x                 CODE
 0002:00000000 00000300H .idata$5                DATA
 0002:00000300 0000633cH .rdata                  DATA
 0002:00006640 0000017cH .rdata$r                DATA
 0002:000067c0 000024e0H .xdata$x                DATA
 0002:00008ca0 00000064H .idata$2                DATA
 0002:00008d04 00000014H .idata$3                DATA
 0002:00008d18 00000300H .idata$4                DATA
 0002:00009018 00001164H .idata$6                DATA
 0002:0000a180 00001521H .edata                  DATA
 0003:00000000 00000004H .CRT$XCA                DATA
 0003:00000004 00000100H .CRT$XCU                DATA
 0003:00000104 00000004H .CRT$XCZ                DATA
 0003:00000108 00000004H .CRT$XIA                DATA
 0003:0000010c 0000000cH .CRT$XIC                DATA
 0003:00000118 00000004H .CRT$XIY                DATA
 0003:0000011c 00000004H .CRT$XIZ                DATA
 0003:00000120 00000004H .CRT$XPA                DATA
 0003:00000124 00000004H .CRT$XPX                DATA
 0003:00000128 00000004H .CRT$XPZ                DATA
 0003:0000012c 00000004H .CRT$XTA                DATA
 0003:00000130 00000004H .CRT$XTB                DATA
 0003:00000134 00000004H .CRT$XTZ                DATA
 0003:00000140 000064ccH .data                   DATA
 0003:00006610 1557dc8cH .bss                    DATA

  Address         Publics by Value              Rva+Base     Lib:Object

 0001:00000000       ??_H@YGXPAXIHP6EX0@Z@Z     10001000 f i KPartnerSkill.obj
 0001:00000030       ?GetMoney@KInventory@@QAEHXZ 10001030 f i KThiefSkill.obj
 0001:00000040       ?SetMoney@KInventory@@QAEHH@Z 10001040 f i KThiefSkill.obj
 0001:00000060       ??4KInventory@@QAEAAV0@ABV0@@Z 10001060 f i KThiefSkill.obj
 0001:00000090       ?GetEquipment@KItemList@@QAEHH@Z 10001090 f i KThiefSkill.obj
 0001:000000a0       ?GetMoney@KItemList@@QAEHH@Z 100010a0 f i KThiefSkill.obj
 0001:000000c0       ?Hand@KItemList@@QAEHXZ    100010c0 f i KThiefSkill.obj
 0001:000000d0       ??4KItemList@@QAEAAV0@ABV0@@Z 100010d0 f i KThiefSkill.obj
 0001:000000f0       ??0KThiefSkill@@QAE@XZ     100010f0 f   KThiefSkill.obj
 0001:00000120       ?GetSkillCostType@KThiefSkill@@UBE?AW4NPCATTRIB@@XZ 10001120 f i KThiefSkill.obj
 0001:00000130       ?GetAttackRadius@KThiefSkill@@UBEHXZ 10001130 f i KThiefSkill.obj
 0001:00000140       ?IsTargetOnly@KThiefSkill@@UBEHXZ 10001140 f i KThiefSkill.obj
 0001:00000150       ?IsTargetEnemy@KThiefSkill@@UBEHXZ 10001150 f i KThiefSkill.obj
 0001:00000160       ?IsTargetAlly@KThiefSkill@@UBEHXZ 10001160 f i KThiefSkill.obj
 0001:00000170       ?IsTargetObj@KThiefSkill@@UBEHXZ 10001170 f i KThiefSkill.obj
 0001:00000180       ?IsTargetSelf@KThiefSkill@@UBEHXZ 10001180 f i KThiefSkill.obj
 0001:00000190       ??_GKThiefSkill@@UAEPAXI@Z 10001190 f i KThiefSkill.obj
 0001:00000190       ??_EKThiefSkill@@UAEPAXI@Z 10001190 f i KThiefSkill.obj
 0001:000001b0       ??1KThiefSkill@@UAE@XZ     100011b0 f   KThiefSkill.obj
 0001:000001c0       ?GetSkillId@KThiefSkill@@UAEHXZ 100011c0 f   KThiefSkill.obj
 0001:000001d0       ?GetSkillName@KThiefSkill@@UAEPBDXZ 100011d0 f   KThiefSkill.obj
 0001:000001e0       ?GetSkillStyle@KThiefSkill@@UAEHXZ 100011e0 f   KThiefSkill.obj
 0001:000001f0       ?LoadSkillLevelData@KThiefSkill@@UAEXKH@Z 100011f0 f   KThiefSkill.obj
 0001:00000200       ?DoSkill@KThiefSkill@@QAEHPAVKNpc@@HH@Z 10001200 f   KThiefSkill.obj
 0001:00000250       ?Cast_Redress@KThiefSkill@@AAEHPAVKPlayer@@0@Z 10001250 f   KThiefSkill.obj
 0001:00000450       ?Cast_ShowLife@KThiefSkill@@AAEHPAVKPlayer@@0@Z 10001450 f   KThiefSkill.obj
 0001:000004e0       ?Cast_ShowMana@KThiefSkill@@AAEHPAVKPlayer@@0@Z 100014e0 f   KThiefSkill.obj
 0001:00000570       ?Cast_ShowMoney@KThiefSkill@@AAEHPAVKPlayer@@0@Z 10001570 f   KThiefSkill.obj
 0001:000005f0       ?Cast_RunScript@KThiefSkill@@AAEHPAVKPlayer@@0@Z 100015f0 f   KThiefSkill.obj
 0001:00000630       ?Cast@KThiefSkill@@QAEHPAVKPlayer@@0@Z 10001630 f   KThiefSkill.obj
 0001:000006b0       ?OnSkill@KThiefSkill@@QAEHPAVKNpc@@@Z 100016b0 f   KThiefSkill.obj
 0001:000007d0       ?CanCastSkill@KThiefSkill@@UBEHHAAH0@Z 100017d0 f   KThiefSkill.obj
 0001:00000880       ?LoadSetting@KThiefSkill@@QAEHPAD@Z 10001880 f   KThiefSkill.obj
 0001:00000a80       ?GetSkillCost@KThiefSkill@@UBEHPAX@Z 10001a80 f   KThiefSkill.obj
 0001:00000aa0       ?IsAura@ISkill@@UBEHXZ     10001aa0 f i KThiefSkill.obj
 0001:00000ab0       ?IsPhysical@ISkill@@UBEHXZ 10001ab0 f i KThiefSkill.obj
 0001:00000ac0       ?IsSkillPhysics@ISkill@@UBEHXZ 10001ac0 f i KThiefSkill.obj
 0001:00000ad0       ?GetSkillLevelUpScriptId@ISkill@@UBEKXZ 10001ad0 f i KThiefSkill.obj
 0001:00000ae0       ??_GISkill@@UAEPAXI@Z      10001ae0 f i KThiefSkill.obj
 0001:00000ae0       ??_EISkill@@UAEPAXI@Z      10001ae0 f i KThiefSkill.obj
 0001:00000b00       ??0KMissleSet@@QAE@XZ      10001b00 f i KMissle.obj
 0001:00000b10       ??4KMissleSet@@QAEAAV0@ABV0@@Z 10001b10 f i KMissle.obj
 0001:00000b40       ??1KMissleSet@@QAE@XZ      10001b40 f i KMissle.obj
 0001:00000c50       ??0KMissle@@QAE@XZ         10001c50 f   KMissle.obj
 0001:00000cd0       ??_EKMissle@@UAEPAXI@Z     10001cd0 f i KMissle.obj
 0001:00000cd0       ??_GKMissle@@UAEPAXI@Z     10001cd0 f i KMissle.obj
 0001:00000cf0       ?Release@KMissle@@AAEXXZ   10001cf0 f   KMissle.obj
 0001:00000d50       ??1KMissle@@UAE@XZ         10001d50 f   KMissle.obj
 0001:00000d60       ??_EKNode@@UAEPAXI@Z       10001d60 f i KMissle.obj
 0001:00000d60       ??_GKNode@@UAEPAXI@Z       10001d60 f i KMissle.obj
 0001:00000d80       ?GetInfoFromTabFile@KMissle@@QAEHH@Z 10001d80 f   KMissle.obj
 0001:00000da0       ?GetInfoFromTabFile@KMissle@@QAEHPAVKITabFile@@H@Z 10001da0 f   KMissle.obj
 0001:00000fb0       ?Init@KMissle@@AAEHHHHHH@Z 10001fb0 f   KMissle.obj
 0001:00000fc0       ?Activate@KMissle@@QAEHXZ  10001fc0 f   KMissle.obj
 0001:000011b0       ??_GKIndexNode@@UAEPAXI@Z  100021b0 f i KMissle.obj
 0001:000011b0       ??_EKIndexNode@@UAEPAXI@Z  100021b0 f i KMissle.obj
 0001:000011d0       ??1KIndexNode@@UAE@XZ      100021d0 f i KMissle.obj
 0001:000011e0       ?OnWait@KMissle@@AAEXXZ    100021e0 f   KMissle.obj
 0001:000011f0       ?OnCollision@KMissle@@AAEXXZ 100021f0 f   KMissle.obj
 0001:00001200       ?CheckCollision@KMissle@@AAEHXZ 10002200 f   KMissle.obj
 0001:00001770       ?OnFly@KMissle@@AAEXXZ     10002770 f   KMissle.obj
 0001:000022f0       ?Send@KWorldMsg@@QAEHKHHH@Z 100032f0 f i KMissle.obj
 0001:00002360       ??_GKWorldMsgNode@@UAEPAXI@Z 10003360 f i KMissle.obj
 0001:00002360       ??_EKWorldMsgNode@@UAEPAXI@Z 10003360 f i KMissle.obj
 0001:00002380       ??1KWorldMsgNode@@UAE@XZ   10003380 f i KMissle.obj
 0001:00002390       ?OnVanish@KMissle@@AAEXXZ  10003390 f   KMissle.obj
 0001:000023a0       ?CheckBeyondRegion@KMissle@@AAEHHH@Z 100033a0 f   KMissle.obj
 0001:00002670       ??4KMissle@@AAEAAV0@AAV0@@Z 10003670 f   KMissle.obj
 0001:000027e0       ?ProcessDamage@KMissle@@AAEHH@Z 100037e0 f   KMissle.obj
 0001:00002900       ?DoVanish@KMissle@@AAEXXZ  10003900 f   KMissle.obj
 0001:000029b0       ?DoCollision@KMissle@@AAEXXZ 100039b0 f   KMissle.obj
 0001:00002a30       ?DoFly@KMissle@@AAEXXZ     10003a30 f   KMissle.obj
 0001:00002a50       ?GetOffsetAxis@KMissle@@SAHHHHHHHAAH00@Z 10003a50 f   KMissle.obj
 0001:00002b80       ?ProcessCollision@KMissle@@AAEHHHHHHH@Z 10003b80 f   KMissle.obj
 0001:00002dc0       ?ProcessCollision@KMissle@@AAEHXZ 10003dc0 f   KMissle.obj
 0001:00002e00       ?DoWait@KMissle@@AAEXXZ    10003e00 f   KMissle.obj
 0001:00002e10       ?PrePareFly@KMissle@@AAEHXZ 10003e10 f   KMissle.obj
 0001:000030c0       ?CheckNearestCollision@KMissle@@AAEHXZ 100040c0 f   KMissle.obj
 0001:00003350       ?GetMpsPos@KMissle@@QAEXPAH0@Z 10004350 f   KMissle.obj
 0001:000033f0       ?Init@KMissleSet@@QAEXXZ   100043f0 f   KMissleSet.obj
 0001:00003440       ?FindFree@KMissleSet@@QAEHXZ 10004440 f   KMissleSet.obj
 0001:00003450       ?Add@KMissleSet@@QAEHHHHHHH@Z 10004450 f   KMissleSet.obj
 0001:000034f0       ?Add@KMissleSet@@QAEHHHH@Z 100044f0 f   KMissleSet.obj
 0001:00003640       ?CreateMissile@KMissleSet@@QAEHHHHHHHHH@Z 10004640 f   KMissleSet.obj
 0001:00003670       ?Activate@KMissleSet@@QAEHXZ 10004670 f   KMissleSet.obj
 0001:000036a0       ?Remove@KMissleSet@@QAEXH@Z 100046a0 f   KMissleSet.obj
 0001:000036f0       ?Draw@KMissleSet@@QAEXXZ   100046f0 f   KMissleSet.obj
 0001:00003700       ?GetCount@KMissleSet@@QAEHXZ 10004700 f   KMissleSet.obj
 0001:00003720       ?ClearMissles@KMissleSet@@QAEXXZ 10004720 f   KMissleSet.obj
 0001:00003750       ??0KSkillList@@QAE@XZ      10004750 f   KSkillList.obj
 0001:00003770       ??1KSkillList@@QAE@XZ      10004770 f   KSkillList.obj
 0001:00003780       ?FindSame@KSkillList@@QAEHH@Z 10004780 f   KSkillList.obj
 0001:000037b0       ?FindFree@KSkillList@@QAEHXZ 100047b0 f   KSkillList.obj
 0001:000037d0       ?SetNpcSkill@KSkillList@@QAEXHHH@Z 100047d0 f   KSkillList.obj
 0001:00003820       ?RemoveNpcSkill@KSkillList@@QAEXH@Z 10004820 f   KSkillList.obj
 0001:00003850       ?GetCount@KSkillList@@QAEHXZ 10004850 f   KSkillList.obj
 0001:00003870       ?IncreaseLevel@KSkillList@@QAEHHH@Z 10004870 f   KSkillList.obj
 0001:00003af0       ?Add@KSkillList@@QAEHHH@Z  10004af0 f   KSkillList.obj
 0001:00003d60       ?GetLevel@KSkillList@@QAEHH@Z 10004d60 f   KSkillList.obj
 0001:00003d90       ?GetSupportPercent@KSkillList@@QAEHH@Z 10004d90 f   KSkillList.obj
 0001:00003e40       ?SetSkillCurExp@KSkillList@@QAEXHH@Z 10004e40 f   KSkillList.obj
 0001:00003e70       ?SetSkillExp@KSkillList@@QAEXHH@Z 10004e70 f   KSkillList.obj
 0001:00003ea0       ?GetCurrentLevel@KSkillList@@QAEHH@Z 10004ea0 f   KSkillList.obj
 0001:00003ed0       ?CanCast@KSkillList@@QAEHHK@Z 10004ed0 f   KSkillList.obj
 0001:00003f10       ?SetNextCastTime@KSkillList@@QAEXHKH@Z 10004f10 f   KSkillList.obj
 0001:00003f40       ?GetNextTime@KSkillList@@QAEKH@Z 10004f40 f   KSkillList.obj
 0001:00003f60       ?ClearNextCastTime@KSkillList@@QAEXXZ 10004f60 f   KSkillList.obj
 0001:00003f80       ?UpdateDBSkillList@KSkillList@@QAEHPAE@Z 10004f80 f   KSkillList.obj
 0001:00004120       ?Remove@KSkillList@@QAEHH@Z 10005120 f   KSkillList.obj
 0001:000041e0       ?Clear@KSkillList@@QAEXXZ  100051e0 f   KSkillList.obj
 0001:000042a0       ?id@?$ctype@G@std@@$E      100052a0 f i KSkillList.obj
 0001:000042f0       ??0KSkillManager@@QAE@XZ   100052f0 f   KSkillManager.obj
 0001:00004300       ??1KSkillManager@@QAE@XZ   10005300 f   KSkillManager.obj
 0001:00004340       ?Init@KSkillManager@@QAEHXZ 10005340 f   KSkillManager.obj
 0001:00004510       ?InstanceSkill@KSkillManager@@AAEPAVISkill@@KK@Z 10005510 f   KSkillManager.obj
 0001:00004680       ??4KSkill@@QAEAAV0@ABV0@@Z 10005680 f i KSkillManager.obj
 0001:00004a20       ??0KSkill@@QAE@XZ          10005a20 f   KSkills.obj
 0001:00004af0       ??_EKSkill@@UAEPAXI@Z      10005af0 f i KSkills.obj
 0001:00004af0       ??_GKSkill@@UAEPAXI@Z      10005af0 f i KSkills.obj
 0001:00004b10       ??1KSkill@@UAE@XZ          10005b10 f   KSkills.obj
 0001:00004b20       ?CanCastSkill@KSkill@@UBEHHAAH0@Z 10005b20 f   KSkills.obj
 0001:00004e10       ?Cast@KSkill@@QBEHHHHHW4eSkillLauncherType@@@Z 10005e10 f   KSkills.obj
 0001:00004ff0       ?Vanish@KSkill@@ABEXPAVKMissle@@@Z 10005ff0 f   KSkills.obj
 0001:00005000       ?OnMissleEvent@KSkill@@QBEHGPAVKMissle@@@Z 10006000 f   KSkills.obj
 0001:00005220       ?FlyEvent@KSkill@@ABEXPAVKMissle@@@Z 10006220 f   KSkills.obj
 0001:00005230       ?Collidsion@KSkill@@ABEXPAVKMissle@@@Z 10006230 f   KSkills.obj
 0001:00005240       ?CastMissles@KSkill@@ABEHHHHHW4eSkillLauncherType@@@Z 10006240 f   KSkills.obj
 0001:00006920       ?CastZone@KSkill@@ABEHPAUTOrdinSkillParam@@HHH@Z 10007920 f   KSkills.obj
 0001:00006e30       ?CastLine@KSkill@@ABEHPAUTOrdinSkillParam@@HHH@Z 10007e30 f   KSkills.obj
 0001:000071c0       ?CastExtractiveLineMissle@KSkill@@ABEHPAUTOrdinSkillParam@@HHHHHHH@Z 100081c0 f   KSkills.obj
 0001:00007520       ?IsTargetOnly@KSkill@@UBEHXZ 10008520 f i KSkills.obj
 0001:00007530       ?IsTargetEnemy@KSkill@@UBEHXZ 10008530 f i KSkills.obj
 0001:00007540       ?IsTargetAlly@KSkill@@UBEHXZ 10008540 f i KSkills.obj
 0001:00007550       ?IsTargetObj@KSkill@@UBEHXZ 10008550 f i KSkills.obj
 0001:00007560       ?IsTargetSelf@KSkill@@UBEHXZ 10008560 f i KSkills.obj
 0001:00007570       ?CastWall@KSkill@@ABEHPAUTOrdinSkillParam@@HHH@Z 10008570 f   KSkills.obj
 0001:00007970       ?GetSkillLevelUpScriptId@KSkill@@UBEKXZ 10008970 f i KSkills.obj
 0001:00007980       ?GetSkillName@KSkill@@UAEPBDXZ 10008980 f i KSkills.obj
 0001:00007990       ?GetSkillStyle@KSkill@@UAEHXZ 10008990 f i KSkills.obj
 0001:000079a0       ?GetAttackRadius@KSkill@@UBEHXZ 100089a0 f i KSkills.obj
 0001:000079b0       ?GetSkillCost@KSkill@@UBEHPAX@Z 100089b0 f i KSkills.obj
 0001:000079c0       ?GetSkillCostType@KSkill@@UBE?AW4NPCATTRIB@@XZ 100089c0 f i KSkills.obj
 0001:000079d0       ?GetSkillId@KSkill@@UAEHXZ 100089d0 f i KSkills.obj
 0001:000079e0       ?IsAura@KSkill@@UBEHXZ     100089e0 f i KSkills.obj
 0001:000079f0       ?IsPhysical@KSkill@@UBEHXZ 100089f0 f i KSkills.obj
 0001:00007a00       ?CastCircle@KSkill@@ABEHPAUTOrdinSkillParam@@HHH@Z 10008a00 f   KSkills.obj
 0001:00007dd0       ?CastSpread@KSkill@@ABEHPAUTOrdinSkillParam@@HHH@Z 10008dd0 f   KSkills.obj
 0001:00008340       ?GetChildSkillNum@KSkill@@QBEHH@Z 10009340 f   KSkills.obj
 0001:00008350       ?CreateMissle@KSkill@@ABEXHHH@Z 10009350 f   KSkills.obj
 0001:00008580       ?GetInfoFromTabFile@KSkill@@QAEHH@Z 10009580 f   KSkills.obj
 0001:000085a0       ?GetInfoFromTabFile@KSkill@@QAEHPAVKITabFile@@H@Z 100095a0 f   KSkills.obj
 0001:00008b20       ?LoadSkillLevelData@KSkill@@UAEXKH@Z 10009b20 f   KSkills.obj
 0001:00008e40       ?CreateMissleMagicAttribsData@KSkill@@QBEPAVKMissleMagicAttribsData@@H@Z 10009e40 f   KSkills.obj
 0001:00008f70       ?GetMissleGenerateTime@KSkill@@QBEIH@Z 10009f70 f   KSkills.obj
 0001:00009070       ?GetSkillIdFromName@KSkill@@SAHPAD@Z 1000a070 f   KSkills.obj
 0001:00009110       ?CastInitiativeSkill@KSkill@@ABEHHHHH@Z 1000a110 f   KSkills.obj
 0001:00009250       ?CastPassivitySkill@KSkill@@ABEHHHHH@Z 1000a250 f   KSkills.obj
 0001:000092a0       ?ParseString2MagicAttrib@KSkill@@AAEHKPAD0@Z 1000a2a0 f   KSkills.obj
 0001:00009960       ?Init@KFaction@@QAEHXZ     1000a960 f   KFaction.obj
 0001:00009a90       ?GetID@KFaction@@QAEHPAD@Z 1000aa90 f   KFaction.obj
 0001:00009b00       ?GetCamp@KFaction@@QAEHH@Z 1000ab00 f   KFaction.obj
 0001:00009b80       ??1KNpc@@QAE@XZ            1000ab80 f i KNpc.obj
 0001:00009be0       ??1KList@@QAE@XZ           1000abe0 f i KNpc.obj
 0001:00009bf0       ??0KNpc@@QAE@XZ            1000abf0 f   KNpc.obj
 0001:00009d40       ?Init@KNpc@@QAEXXZ         1000ad40 f   KNpc.obj
 0001:0000a090       ?GetActiveSkill@KNpc@@QAEPAVISkill@@XZ 1000b090 f   KNpc.obj
 0001:0000a0f0       ?SetCurrentCamp@KNpc@@QAEXH@Z 1000b0f0 f   KNpc.obj
 0001:0000a100       ?SetCamp@KNpc@@QAEXH@Z     1000b100 f   KNpc.obj
 0001:0000a110       ?RestoreCurrentCamp@KNpc@@QAEXXZ 1000b110 f   KNpc.obj
 0001:0000a120       ?Activate@KNpc@@QAEXXZ     1000b120 f   KNpc.obj
 0001:0000a290       ?ProcStatus@KNpc@@QAEXXZ   1000b290 f   KNpc.obj
 0001:0000a370       ?ProcCommand@KNpc@@QAEXH@Z 1000b370 f   KNpc.obj
 0001:0000a590       ?ProcessState@KNpc@@QAEHXZ 1000b590 f   KNpc.obj
 0001:0000b270       ?DoDeath@KNpc@@AAEXH@Z     1000c270 f   KNpc.obj
 0001:0000b570       ?OnDeath@KNpc@@AAEXXZ      1000c570 f   KNpc.obj
 0001:0000b680       ?DoDefense@KNpc@@AAEXXZ    1000c680 f   KNpc.obj
 0001:0000b690       ?OnDefense@KNpc@@AAEXXZ    1000c690 f   KNpc.obj
 0001:0000b6a0       ?DoIdle@KNpc@@AAEXXZ       1000c6a0 f   KNpc.obj
 0001:0000b6c0       ?OnIdle@KNpc@@AAEXXZ       1000c6c0 f   KNpc.obj
 0001:0000b6d0       ?DoHurt@KNpc@@AAEXHHH@Z    1000c6d0 f   KNpc.obj
 0001:0000b9a0       ?OnHurt@KNpc@@AAEXXZ       1000c9a0 f   KNpc.obj
 0001:0000b9f0       ?DoSpecial1@KNpc@@AAEXXZ   1000c9f0 f   KNpc.obj
 0001:0000ba00       ?OnSpecial1@KNpc@@AAEXXZ   1000ca00 f   KNpc.obj
 0001:0000bac0       ?DoSpecial2@KNpc@@AAEXXZ   1000cac0 f   KNpc.obj
 0001:0000bad0       ?OnSpecial2@KNpc@@AAEXXZ   1000cad0 f   KNpc.obj
 0001:0000bb40       ?DoSpecial3@KNpc@@AAEXXZ   1000cb40 f   KNpc.obj
 0001:0000bb50       ?OnSpecial3@KNpc@@AAEXXZ   1000cb50 f   KNpc.obj
 0001:0000bb60       ?DoSpecial4@KNpc@@AAEXXZ   1000cb60 f   KNpc.obj
 0001:0000bb70       ?OnSpecial4@KNpc@@AAEXXZ   1000cb70 f   KNpc.obj
 0001:0000bb80       ?DoStand@KNpc@@AAEXXZ      1000cb80 f   KNpc.obj
 0001:0000bd20       ?OnStand@KNpc@@AAEXXZ      1000cd20 f   KNpc.obj
 0001:0000bd30       ?DoRevive@KNpc@@AAEXXZ     1000cd30 f   KNpc.obj
 0001:0000be30       ?OnRevive@KNpc@@AAEXXZ     1000ce30 f   KNpc.obj
 0001:0000be70       ?DoRun@KNpc@@AAEXXZ        1000ce70 f   KNpc.obj
 0001:0000c030       ?OnRun@KNpc@@AAEXXZ        1000d030 f   KNpc.obj
 0001:0000c050       ?OnRun2@KNpc@@AAEXH@Z      1000d050 f   KNpc.obj
 0001:0000c070       ?DoSit@KNpc@@AAEXXZ        1000d070 f   KNpc.obj
 0001:0000c1f0       ?OnSit@KNpc@@AAEXXZ        1000d1f0 f   KNpc.obj
 0001:0000c210       ?DoSkill@KNpc@@AAEXHH@Z    1000d210 f   KNpc.obj
 0001:0000c550       ?DoOrdinSkill@KNpc@@AAEHPAVKSkill@@HH@Z 1000d550 f   KNpc.obj
 0001:0000c6a0       ?DoAttack@KNpc@@AAEXXZ     1000d6a0 f   KNpc.obj
 0001:0000c6b0       ?CastMeleeSkill@KNpc@@AAEHPAVKSkill@@@Z 1000d6b0 f   KNpc.obj
 0001:0000c840       ?DoBlurAttack@KNpc@@AAEHXZ 1000d840 f   KNpc.obj
 0001:0000c8d0       ?OnSkill@KNpc@@AAEXXZ      1000d8d0 f   KNpc.obj
 0001:0000c9e0       ?JumpTo@KNpc@@AAEXHH@Z     1000d9e0 f   KNpc.obj
 0001:0000ca20       ?RunTo@KNpc@@AAEXHH@Z      1000da20 f   KNpc.obj
 0001:0000ca50       ?Goto@KNpc@@AAEXHH@Z       1000da50 f   KNpc.obj
 0001:0000ca80       ?DoWalk@KNpc@@AAEXXZ       1000da80 f   KNpc.obj
 0001:0000cc20       ?DoPlayerTalk@KNpc@@QAEXPAD@Z 1000dc20 f   KNpc.obj
 0001:0000cde0       ?OnPlayerTalk@KNpc@@AAEXXZ 1000dde0 f   KNpc.obj
 0001:0000cdf0       ?Walk@KNpc@@AAEXHH@Z       1000ddf0 f   KNpc.obj
 0001:0000ceb0       ?OnWalk@KNpc@@AAEXXZ       1000deb0 f   KNpc.obj
 0001:0000ced0       ?GetSkillLevel@KNpc@@QAEHH@Z 1000ded0 f   KNpc.obj
 0001:0000cf00       ?ModifyAttrib@KNpc@@QAEXHPAX@Z 1000df00 f   KNpc.obj
 0001:0000cf20       ?CastSkillState@KNpc@@QAEXHHH@Z 1000df20 f   KNpc.obj
 0001:0000cf90       ?CastSkill@KNpc@@QAEXHH@Z  1000df90 f   KNpc.obj
 0001:0000d180       ?CalcDamage@KNpc@@QAEXHHHW4DAMAGE_TYPE@@HHHHHFFFE@Z 1000e180 f   KNpc.obj
 0001:0000e120       ?ReceiveDamage@KNpc@@QAEHHHPAXHHHH@Z 1000f120 f   KNpc.obj
 0001:0000ec70       ??_GKStateNode@@UAEPAXI@Z  1000fc70 f i KNpc.obj
 0001:0000ec70       ??_EKStateNode@@UAEPAXI@Z  1000fc70 f i KNpc.obj
 0001:0000ec90       ??1KStateNode@@UAE@XZ      1000fc90 f i KNpc.obj
 0001:0000eca0       ?AppendSkillEffect@KNpc@@QAEXHPAX0H@Z 1000fca0 f   KNpc.obj
 0001:0000f7d0       ?SetImmediatelySkillEffect@KNpc@@QAEXHPAXH@Z 100107d0 f   KNpc.obj
 0001:0000f810       ?ServeMove@KNpc@@AAEXH@Z   10010810 f   KNpc.obj
 0001:0000fcf0       ?ServeJump@KNpc@@AAEXH@Z   10010cf0 f   KNpc.obj
 0001:00010160       ?SendCommand@KNpc@@QAEXW4NPCCMD@@HHH@Z 10011160 f   KNpc.obj
 0001:00010190       ?NewPath@KNpc@@AAEHHH@Z    10011190 f   KNpc.obj
 0001:000101b0       ?NewJump@KNpc@@AAEHHH@Z    100111b0 f   KNpc.obj
 0001:000104f0       ?Cost@KNpc@@QAEHW4NPCATTRIB@@HH@Z 100114f0 f   KNpc.obj
 0001:00010560       ?DoJump@KNpc@@AAEXXZ       10011560 f   KNpc.obj
 0001:00010720       ?OnJump@KNpc@@AAEHXZ       10011720 f   KNpc.obj
 0001:00010760       ?WaitForFrame@KNpc@@AAEHXZ 10011760 f   KNpc.obj
 0001:00010790       ?IsReachFrame@KNpc@@AAEHH@Z 10011790 f   KNpc.obj
 0001:000107c0       ?Load@KNpc@@QAEXHH@Z       100117c0 f   KNpc.obj
 0001:00010860       ?SetDataRes@KNpc@@QAEXF@Z  10011860 f   KNpc.obj
 0001:00010870       ?GetMpsPos@KNpc@@QAEXPAH0@Z 10011870 f   KNpc.obj
 0001:000108d0       ?SetActiveSkill@KNpc@@QAEHH@Z 100118d0 f   KNpc.obj
 0001:00010960       ?SetAuraSkill@KNpc@@QAEXH@Z 10011960 f   KNpc.obj
 0001:00010a40       ?SetPlayerIdx@KNpc@@QAEHH@Z 10011a40 f   KNpc.obj
 0001:00010a70       ?SendSyncData@KNpc@@QAEHH@Z 10011a70 f   KNpc.obj
 0001:00010e60       ?NormalSync@KNpc@@QAEXXZ   10011e60 f   KNpc.obj
 0001:000114b0       ?BroadCastRevive@KNpc@@QAEXH@Z 100124b0 f   KNpc.obj
 0001:00011620       ?BroadCastSetPos@KNpc@@QAEXHKKHH@Z 10012620 f   KNpc.obj
 0001:000117b0       ?GetPlayerIdx@KNpc@@QAEHXZ 100127b0 f   KNpc.obj
 0001:000117c0       ?AddBaseLifeMax@KNpc@@QAEXH@Z 100127c0 f   KNpc.obj
 0001:000117e0       ?AddCurLifeMax@KNpc@@QAEXH@Z 100127e0 f   KNpc.obj
 0001:00011800       ?AddBaseStaminaMax@KNpc@@QAEXH@Z 10012800 f   KNpc.obj
 0001:00011820       ?AddCurStaminaMax@KNpc@@QAEXH@Z 10012820 f   KNpc.obj
 0001:00011840       ?AddBaseManaMax@KNpc@@QAEXH@Z 10012840 f   KNpc.obj
 0001:00011860       ?AddCurManaMax@KNpc@@QAEXH@Z 10012860 f   KNpc.obj
 0001:00011880       ?CalcCurLifeReplenish@KNpc@@QAEXXZ 10012880 f   KNpc.obj
 0001:00011890       ?Remove@KNpc@@QAEXXZ       10012890 f   KNpc.obj
 0001:000118a0       ?SetSeries@KNpc@@QAEXH@Z   100128a0 f   KNpc.obj
 0001:000118c0       ?SetSeriesRand@KNpc@@QAEXXZ 100128c0 f   KNpc.obj
 0001:00011920       ?AppendEffect@KNpc@@QAEXHHH@Z 10012920 f   KNpc.obj
 0001:00011aa0       ?SetStateSkillEffect@KNpc@@QAEXHHHPAXHHH@Z 10012aa0 f   KNpc.obj
 0001:00011f00       ?ModifyMissleCollsion@KNpc@@QAEHH@Z 10012f00 f   KNpc.obj
 0001:00011f10       ?ModifyMissleLifeTime@KNpc@@QAEHH@Z 10012f10 f   KNpc.obj
 0001:00011f20       ?ModifyMissleSpeed@KNpc@@QAEHH@Z 10012f20 f   KNpc.obj
 0001:00011f40       ?DoManyAttack@KNpc@@AAEHXZ 10012f40 f   KNpc.obj
 0001:00012010       ?OnManyAttack@KNpc@@AAEXXZ 10013010 f   KNpc.obj
 0001:000120b0       ?DoRunAttack@KNpc@@AAEHHPAVKSkill@@@Z 100130b0 f   KNpc.obj
 0001:000123b0       ?OnRunAttack@KNpc@@AAEXXZ  100133b0 f   KNpc.obj
 0001:00012520       ?DoLightningMove@KNpc@@AAEHPAVKSkill@@@Z 10013520 f   KNpc.obj
 0001:00012970       ?OnLightningMove@KNpc@@AAEXXZ 10013970 f   KNpc.obj
 0001:00012a20       ?DoJumpAttack@KNpc@@AAEHXZ 10013a20 f   KNpc.obj
 0001:00012ae0       ?OnJumpAttack@KNpc@@AAEHXZ 10013ae0 f   KNpc.obj
 0001:00012c20       ?CheckHitTarget@KNpc@@AAEHHHH@Z 10013c20 f   KNpc.obj
 0001:00012ca0       ?GetNpcCopyFromTemplate@KNpc@@QAEXHH@Z 10013ca0 f   KNpc.obj
 0001:00012db0       ?GetNpcFrameFromTemplate@KNpc@@QAEXH@Z 10013db0 f   KNpc.obj
 0001:00012e80       ?LoadDataFromTemplate@KNpc@@QAEXHH@Z 10013e80 f   KNpc.obj
 0001:000131d0       ?SetPhysicsDamage@KNpc@@QAEXHH@Z 100141d0 f   KNpc.obj
 0001:000131f0       ?SetBaseAttackRating@KNpc@@QAEXH@Z 100141f0 f   KNpc.obj
 0001:00013210       ?SetBaseDefence@KNpc@@QAEXH@Z 10014210 f   KNpc.obj
 0001:00013230       ?DeathPunish@KNpc@@QAEXHH@Z 10014230 f   KNpc.obj
 0001:00013700       ??1tagSHOW_MSG_SYNC@@QAE@XZ 10014700 f i KNpc.obj
 0001:00013720       ?PlayerDeadCreateMoneyObj@KNpc@@AAEXH@Z 10014720 f   KNpc.obj
 0001:00013800       ?LoseMoney@KNpc@@AAEXH@Z   10014800 f   KNpc.obj
 0001:00013810       ?DropMoney@KNpc@@QAEXHH@Z  10014810 f   KNpc.obj
 0001:00013920       ?LoseSingleItem@KNpc@@AAEXH@Z 10014920 f   KNpc.obj
 0001:00013930       ?DropItem@KNpc@@QAEXHH@Z   10014930 f   KNpc.obj
 0001:00013b00       ?Revive@KNpc@@QAEXXZ       10014b00 f   KNpc.obj
 0001:00013c50       ?SendDataToNearRegion@KNpc@@QAEXPAXK@Z 10014c50 f   KNpc.obj
 0001:00013db0       ?DeathCalcPKValue@KNpc@@QAEHH@Z 10014db0 f   KNpc.obj
 0001:00014030       ?CheckPlayerAround@KNpc@@QAEHH@Z 10015030 f   KNpc.obj
 0001:00014100       ?UpdateNpcStateInfo@KNpc@@AAEXXZ 10015100 f   KNpc.obj
 0001:000141c0       ?BroadCastState@KNpc@@QAEXH@Z 100151c0 f   KNpc.obj
 0001:00014220       ?ClearNpcState@KNpc@@QAEXXZ 10015220 f   KNpc.obj
 0001:00014290       ?AddAllSkill@KNpc@@QAEXHH@Z 10015290 f   KNpc.obj
 0001:00014370       ?AddFactionSkill@KNpc@@QAEXHHH@Z 10015370 f   KNpc.obj
 0001:000144f0       ?RestoreNpcBaseInfo@KNpc@@QAEXXZ 100154f0 f   KNpc.obj
 0001:00014830       ?SetPos@KNpc@@QAEHHHH@Z    10015830 f   KNpc.obj
 0001:00014aa0       ?ChangeWorld@KNpc@@QAEHKHH@Z 10015aa0 f   KNpc.obj
 0001:00014ec0       ?TobeExchangeServer@KNpc@@QAEXKHH@Z 10015ec0 f   KNpc.obj
 0001:00014f30       ?IsPlayer@KNpc@@QAEHXZ     10015f30 f   KNpc.obj
 0001:00014f40       ?ClearStateSkillEffect@KNpc@@QAEXXZ 10015f40 f   KNpc.obj
 0001:00015010       ?ClearNormalState@KNpc@@QAEXXZ 10016010 f   KNpc.obj
 0001:000150a0       ?ClearStun_Hurt@KNpc@@QAEXXZ 100160a0 f   KNpc.obj
 0001:000150d0       ?CheckTrap@KNpc@@QAEXXZ    100160d0 f   KNpc.obj
 0001:00015180       ?SetFightMode@KNpc@@QAEXH@Z 10016180 f   KNpc.obj
 0001:000151c0       ?TurnTo@KNpc@@QAEXH@Z      100161c0 f   KNpc.obj
 0001:000152e0       ?ReCalcStateEffect@KNpc@@QAEXXZ 100162e0 f   KNpc.obj
 0001:00015360       ?ClearStateSkillPassive@KNpc@@QAEXH@Z 10016360 f   KNpc.obj
 0001:00015420       ?GetCurActiveWeaponSkill@KNpc@@QAEHXZ 10016420 f   KNpc.obj
 0001:000154c0       ?ExecuteScript@KNpc@@QAEHPAD0H@Z 100164c0 f   KNpc.obj
 0001:00015500       ?ExecuteScript@KNpc@@QAEHKPADH@Z 10016500 f   KNpc.obj
 0001:00015630       ?SetExpandRank@KNpc@@QAEXF@Z 10016630 f   KNpc.obj
 0001:000157c0       ??0KNpcAI@@QAE@XZ          100167c0 f   KNpcAI.obj
 0001:000157d0       ?Activate@KNpcAI@@QAEXH@Z  100167d0 f   KNpcAI.obj
 0001:00015940       ?ProcessPlayer@KNpcAI@@AAEXXZ 10016940 f   KNpcAI.obj
 0001:00015960       ?TriggerMapTrap@KNpcAI@@AAEXXZ 10016960 f   KNpcAI.obj
 0001:00015980       ?TriggerObjectTrap@KNpcAI@@AAEXXZ 10016980 f   KNpcAI.obj
 0001:00015990       ?GetNearestNpc@KNpcAI@@AAEHH@Z 10016990 f   KNpcAI.obj
 0001:00016110       ?GetNpcNumber@KNpcAI@@AAEHH@Z 10017110 f   KNpcAI.obj
 0001:000163b0       ?KeepAttackRange@KNpcAI@@AAEXHH@Z 100173b0 f   KNpcAI.obj
 0001:000164f0       ?FollowAttack@KNpcAI@@AAEXH@Z 100174f0 f   KNpcAI.obj
 0001:000165c0       ?InEyeshot@KNpcAI@@AAEHH@Z 100175c0 f   KNpcAI.obj
 0001:00016600       ?CommonAction@KNpcAI@@AAEXXZ 10017600 f   KNpcAI.obj
 0001:000166d0       ?KeepActiveRange@KNpcAI@@AAEHXZ 100176d0 f   KNpcAI.obj
 0001:000167b0       ?Flee@KNpcAI@@AAEXH@Z      100177b0 f   KNpcAI.obj
 0001:00016850       ?ProcessAIType01@KNpcAI@@AAEXXZ 10017850 f   KNpcAI.obj
 0001:00016a50       ?ProcessAIType02@KNpcAI@@AAEXXZ 10017a50 f   KNpcAI.obj
 0001:00016ce0       ?ProcessAIType03@KNpcAI@@AAEXXZ 10017ce0 f   KNpcAI.obj
 0001:00016f10       ?ProcessAIType04@KNpcAI@@AAEXXZ 10017f10 f   KNpcAI.obj
 0001:000170d0       ?ProcessAIType05@KNpcAI@@AAEXXZ 100180d0 f   KNpcAI.obj
 0001:00017310       ?ProcessAIType06@KNpcAI@@AAEXXZ 10018310 f   KNpcAI.obj
 0001:00017540       ??0KNpcAttribModify@@QAE@XZ 10018540 f   KNpcAttribModify.obj
 0001:000179e0       ??1KNpcAttribModify@@QAE@XZ 100189e0 f   KNpcAttribModify.obj
 0001:000179f0       ?ModifyAttrib@KNpcAttribModify@@QAEXPAVKNpc@@PAX@Z 100189f0 f   KNpcAttribModify.obj
 0001:00017a20       ?AddPhysicsDamageV@KNpcAttribModify@@AAEXPAVKNpc@@PAX@Z 10018a20 f   KNpcAttribModify.obj
 0001:00017a40       ?AddColdDamageV@KNpcAttribModify@@AAEXPAVKNpc@@PAX@Z 10018a40 f   KNpcAttribModify.obj
 0001:00017a60       ?AddFireDamageV@KNpcAttribModify@@AAEXPAVKNpc@@PAX@Z 10018a60 f   KNpcAttribModify.obj
 0001:00017a80       ?AddLightingDamageV@KNpcAttribModify@@AAEXPAVKNpc@@PAX@Z 10018a80 f   KNpcAttribModify.obj
 0001:00017aa0       ?AddPhysicsDamageP@KNpcAttribModify@@AAEXPAVKNpc@@PAX@Z 10018aa0 f   KNpcAttribModify.obj
 0001:00017b90       ?AddPoisonDamageV@KNpcAttribModify@@AAEXPAVKNpc@@PAX@Z 10018b90 f   KNpcAttribModify.obj
 0001:00017be0       ?MetalMagicV@KNpcAttribModify@@AAEXPAVKNpc@@PAX@Z 10018be0 f   KNpcAttribModify.obj
 0001:00017c00       ?FireMagicV@KNpcAttribModify@@AAEXPAVKNpc@@PAX@Z 10018c00 f   KNpcAttribModify.obj
 0001:00017c20       ?WaterMagicV@KNpcAttribModify@@AAEXPAVKNpc@@PAX@Z 10018c20 f   KNpcAttribModify.obj
 0001:00017c40       ?EarthMagicV@KNpcAttribModify@@AAEXPAVKNpc@@PAX@Z 10018c40 f   KNpcAttribModify.obj
 0001:00017c60       ?WoodMagicV@KNpcAttribModify@@AAEXPAVKNpc@@PAX@Z 10018c60 f   KNpcAttribModify.obj
 0001:00017cb0       ?AllresP@KNpcAttribModify@@AAEXPAVKNpc@@PAX@Z 10018cb0 f   KNpcAttribModify.obj
 0001:00017e30       ?AllSkillV@KNpcAttribModify@@AAEXPAVKNpc@@PAX@Z 10018e30 f   KNpcAttribModify.obj
 0001:00017e70       ?AttackRatingP@KNpcAttribModify@@AAEXPAVKNpc@@PAX@Z 10018e70 f   KNpcAttribModify.obj
 0001:00017eb0       ?AttackRatingV@KNpcAttribModify@@AAEXPAVKNpc@@PAX@Z 10018eb0 f   KNpcAttribModify.obj
 0001:00017ed0       ?AttackSpeedV@KNpcAttribModify@@AAEXPAVKNpc@@PAX@Z 10018ed0 f   KNpcAttribModify.obj
 0001:00017f60       ?BadStatusTimeReduceV@KNpcAttribModify@@AAEXPAVKNpc@@PAX@Z 10018f60 f   KNpcAttribModify.obj
 0001:00017f70       ?BurnTimeReduceP@KNpcAttribModify@@AAEXPAVKNpc@@PAX@Z 10018f70 f   KNpcAttribModify.obj
 0001:00017f80       ?CastSpeedV@KNpcAttribModify@@AAEXPAVKNpc@@PAX@Z 10018f80 f   KNpcAttribModify.obj
 0001:00018010       ?ChangeCampV@KNpcAttribModify@@AAEXPAVKNpc@@PAX@Z 10019010 f   KNpcAttribModify.obj
 0001:00018050       ?StopActionB@KNpcAttribModify@@AAEXPAVKNpc@@PAX@Z 10019050 f   KNpcAttribModify.obj
 0001:00018080       ?ColdresP@KNpcAttribModify@@AAEXPAVKNpc@@PAX@Z 10019080 f   KNpcAttribModify.obj
 0001:00018100       ?DeadlyStrikeP@KNpcAttribModify@@AAEXPAVKNpc@@PAX@Z 10019100 f   KNpcAttribModify.obj
 0001:00018120       ?DexterityV@KNpcAttribModify@@AAEXPAVKNpc@@PAX@Z 10019120 f   KNpcAttribModify.obj
 0001:00018160       ?EnergyV@KNpcAttribModify@@AAEXPAVKNpc@@PAX@Z 10019160 f   KNpcAttribModify.obj
 0001:000181a0       ?FastHitRecoverV@KNpcAttribModify@@AAEXPAVKNpc@@PAX@Z 100191a0 f   KNpcAttribModify.obj
 0001:000181c0       ?FastWalkRunP@KNpcAttribModify@@AAEXPAVKNpc@@PAX@Z 100191c0 f   KNpcAttribModify.obj
 0001:00018270       ?FireArmorV@KNpcAttribModify@@AAEXPAVKNpc@@PAX@Z 10019270 f   KNpcAttribModify.obj
 0001:00018280       ?FreezeTimeReduceP@KNpcAttribModify@@AAEXPAVKNpc@@PAX@Z 10019280 f   KNpcAttribModify.obj
 0001:000182a0       ?FatallyStrikeResP@KNpcAttribModify@@AAEXPAVKNpc@@PAX@Z 100192a0 f   KNpcAttribModify.obj
 0001:000182c0       ?LifeMaxP@KNpcAttribModify@@AAEXPAVKNpc@@PAX@Z 100192c0 f   KNpcAttribModify.obj
 0001:00018300       ?LifeMaxV@KNpcAttribModify@@AAEXPAVKNpc@@PAX@Z 10019300 f   KNpcAttribModify.obj
 0001:00018320       ?LifeReplenishV@KNpcAttribModify@@AAEXPAVKNpc@@PAX@Z 10019320 f   KNpcAttribModify.obj
 0001:00018340       ?LifeV@KNpcAttribModify@@AAEXPAVKNpc@@PAX@Z 10019340 f   KNpcAttribModify.obj
 0001:00018360       ?LightingArmorV@KNpcAttribModify@@AAEXPAVKNpc@@PAX@Z 10019360 f   KNpcAttribModify.obj
 0001:00018370       ?LightingresP@KNpcAttribModify@@AAEXPAVKNpc@@PAX@Z 10019370 f   KNpcAttribModify.obj
 0001:000183f0       ?LuckyV@KNpcAttribModify@@AAEXPAVKNpc@@PAX@Z 100193f0 f   KNpcAttribModify.obj
 0001:00018430       ?ManaMaxP@KNpcAttribModify@@AAEXPAVKNpc@@PAX@Z 10019430 f   KNpcAttribModify.obj
 0001:00018470       ?ManaMaxV@KNpcAttribModify@@AAEXPAVKNpc@@PAX@Z 10019470 f   KNpcAttribModify.obj
 0001:00018490       ?ManaReplenishV@KNpcAttribModify@@AAEXPAVKNpc@@PAX@Z 10019490 f   KNpcAttribModify.obj
 0001:000184b0       ?ManaV@KNpcAttribModify@@AAEXPAVKNpc@@PAX@Z 100194b0 f   KNpcAttribModify.obj
 0001:000184d0       ?ManaShieldP@KNpcAttribModify@@AAEXPAVKNpc@@PAX@Z 100194d0 f   KNpcAttribModify.obj
 0001:000184f0       ?MeleeDamageReturnP@KNpcAttribModify@@AAEXPAVKNpc@@PAX@Z 100194f0 f   KNpcAttribModify.obj
 0001:00018510       ?MeleeDamageReturnV@KNpcAttribModify@@AAEXPAVKNpc@@PAX@Z 10019510 f   KNpcAttribModify.obj
 0001:00018530       ?PhysicsresP@KNpcAttribModify@@AAEXPAVKNpc@@PAX@Z 10019530 f   KNpcAttribModify.obj
 0001:000185b0       ?Damage2ManaP@KNpcAttribModify@@AAEXPAVKNpc@@PAX@Z 100195b0 f   KNpcAttribModify.obj
 0001:000185d0       ?PoisonArmorV@KNpcAttribModify@@AAEXPAVKNpc@@PAX@Z 100195d0 f   KNpcAttribModify.obj
 0001:000185e0       ?PoisonDamageReduceV@KNpcAttribModify@@AAEXPAVKNpc@@PAX@Z 100195e0 f   KNpcAttribModify.obj
 0001:00018610       ?PoisonresP@KNpcAttribModify@@AAEXPAVKNpc@@PAX@Z 10019610 f   KNpcAttribModify.obj
 0001:00018690       ?PoisonTimeReduceP@KNpcAttribModify@@AAEXPAVKNpc@@PAX@Z 10019690 f   KNpcAttribModify.obj
 0001:000186b0       ?RangeDamageReturnV@KNpcAttribModify@@AAEXPAVKNpc@@PAX@Z 100196b0 f   KNpcAttribModify.obj
 0001:000186d0       ?RangeDamageReturnP@KNpcAttribModify@@AAEXPAVKNpc@@PAX@Z 100196d0 f   KNpcAttribModify.obj
 0001:000186f0       ?SlowMissleB@KNpcAttribModify@@AAEXPAVKNpc@@PAX@Z 100196f0 f   KNpcAttribModify.obj
 0001:00018720       ?StaminaMaxP@KNpcAttribModify@@AAEXPAVKNpc@@PAX@Z 10019720 f   KNpcAttribModify.obj
 0001:00018760       ?StaminaMaxV@KNpcAttribModify@@AAEXPAVKNpc@@PAX@Z 10019760 f   KNpcAttribModify.obj
 0001:00018780       ?StaminaReplenishV@KNpcAttribModify@@AAEXPAVKNpc@@PAX@Z 10019780 f   KNpcAttribModify.obj
 0001:000187a0       ?StaminaV@KNpcAttribModify@@AAEXPAVKNpc@@PAX@Z 100197a0 f   KNpcAttribModify.obj
 0001:000187c0       ?StealLifeP@KNpcAttribModify@@AAEXPAVKNpc@@PAX@Z 100197c0 f   KNpcAttribModify.obj
 0001:000187e0       ?StealManaP@KNpcAttribModify@@AAEXPAVKNpc@@PAX@Z 100197e0 f   KNpcAttribModify.obj
 0001:00018800       ?StealStaminaP@KNpcAttribModify@@AAEXPAVKNpc@@PAX@Z 10019800 f   KNpcAttribModify.obj
 0001:00018820       ?StrengthV@KNpcAttribModify@@AAEXPAVKNpc@@PAX@Z 10019820 f   KNpcAttribModify.obj
 0001:00018860       ?StunTimeReduceP@KNpcAttribModify@@AAEXPAVKNpc@@PAX@Z 10019860 f   KNpcAttribModify.obj
 0001:00018880       ?VisionRadiusP@KNpcAttribModify@@AAEXPAVKNpc@@PAX@Z 10019880 f   KNpcAttribModify.obj
 0001:000188a0       ?VitalityV@KNpcAttribModify@@AAEXPAVKNpc@@PAX@Z 100198a0 f   KNpcAttribModify.obj
 0001:000188e0       ?FireresP@KNpcAttribModify@@AAEXPAVKNpc@@PAX@Z 100198e0 f   KNpcAttribModify.obj
 0001:00018960       ?ArmorDefenseV@KNpcAttribModify@@AAEXPAVKNpc@@PAX@Z 10019960 f   KNpcAttribModify.obj
 0001:00018980       ?ColdEnhanceP@KNpcAttribModify@@AAEXPAVKNpc@@PAX@Z 10019980 f   KNpcAttribModify.obj
 0001:000189a0       ?FireEnhanceP@KNpcAttribModify@@AAEXPAVKNpc@@PAX@Z 100199a0 f   KNpcAttribModify.obj
 0001:000189c0       ?LightingEnhanceP@KNpcAttribModify@@AAEXPAVKNpc@@PAX@Z 100199c0 f   KNpcAttribModify.obj
 0001:000189e0       ?PoisonEnhanceP@KNpcAttribModify@@AAEXPAVKNpc@@PAX@Z 100199e0 f   KNpcAttribModify.obj
 0001:00018a00       ?LifePotionV@KNpcAttribModify@@AAEXPAVKNpc@@PAX@Z 10019a00 f   KNpcAttribModify.obj
 0001:00018a50       ?ManaPotionV@KNpcAttribModify@@AAEXPAVKNpc@@PAX@Z 10019a50 f   KNpcAttribModify.obj
 0001:00018aa0       ?PhysicsResMaxP@KNpcAttribModify@@AAEXPAVKNpc@@PAX@Z 10019aa0 f   KNpcAttribModify.obj
 0001:00018ac0       ?ColdResMaxP@KNpcAttribModify@@AAEXPAVKNpc@@PAX@Z 10019ac0 f   KNpcAttribModify.obj
 0001:00018ae0       ?FireResMaxP@KNpcAttribModify@@AAEXPAVKNpc@@PAX@Z 10019ae0 f   KNpcAttribModify.obj
 0001:00018b00       ?LightingResMaxP@KNpcAttribModify@@AAEXPAVKNpc@@PAX@Z 10019b00 f   KNpcAttribModify.obj
 0001:00018b20       ?PoisonResMaxP@KNpcAttribModify@@AAEXPAVKNpc@@PAX@Z 10019b20 f   KNpcAttribModify.obj
 0001:00018b40       ?AllResMaxP@KNpcAttribModify@@AAEXPAVKNpc@@PAX@Z 10019b40 f   KNpcAttribModify.obj
 0001:00018bb0       ?FatallyStrikeP@KNpcAttribModify@@AAEXPAVKNpc@@PAX@Z 10019bb0 f   KNpcAttribModify.obj
 0001:00018bc0       ?MixPoisonDamage@KNpcAttribModify@@QAEXPAUKMagicAttrib@@0@Z 10019bc0 f   KNpcAttribModify.obj
 0001:00018c90       ?PoisonDamageReturnP@KNpcAttribModify@@AAEXPAVKNpc@@PAX@Z 10019c90 f   KNpcAttribModify.obj
 0001:00018cb0       ?ReturnSkillP@KNpcAttribModify@@AAEXPAVKNpc@@PAX@Z 10019cb0 f   KNpcAttribModify.obj
 0001:00018cd0       ?AutoReplySkillP@KNpcAttribModify@@AAEXPAVKNpc@@PAX@Z 10019cd0 f   KNpcAttribModify.obj
 0001:00018d90       ?AutoAttackSkillP@KNpcAttribModify@@AAEXPAVKNpc@@PAX@Z 10019d90 f   KNpcAttribModify.obj
 0001:00018dc0       ?AutoAttackSkillPlusP@KNpcAttribModify@@AAEXPAVKNpc@@PAX@Z 10019dc0 f   KNpcAttribModify.obj
 0001:00018df0       ?AutoDeathSkillP@KNpcAttribModify@@AAEXPAVKNpc@@PAX@Z 10019df0 f   KNpcAttribModify.obj
 0001:00018e20       ?AutoRescueSkillP@KNpcAttribModify@@AAEXPAVKNpc@@PAX@Z 10019e20 f   KNpcAttribModify.obj
 0001:00018f00       ?Poison2DecManaP@KNpcAttribModify@@AAEXPAVKNpc@@PAX@Z 10019f00 f   KNpcAttribModify.obj
 0001:00018f40       ?RandMove@KNpcAttribModify@@AAEXPAVKNpc@@PAX@Z 10019f40 f   KNpcAttribModify.obj
 0001:00018f70       ?IgnoreNegativestateP@KNpcAttribModify@@AAEXPAVKNpc@@PAX@Z 10019f70 f   KNpcAttribModify.obj
 0001:00018fb0       ?HideV@KNpcAttribModify@@AAEXPAVKNpc@@PAX@Z 10019fb0 f   KNpcAttribModify.obj
 0001:00018fe0       ?IgnoreSkillP@KNpcAttribModify@@AAEXPAVKNpc@@PAX@Z 10019fe0 f   KNpcAttribModify.obj
 0001:00019000       ?LifeReplenishP@KNpcAttribModify@@AAEXPAVKNpc@@PAX@Z 1001a000 f   KNpcAttribModify.obj
 0001:00019020       ?ManaReplenishP@KNpcAttribModify@@AAEXPAVKNpc@@PAX@Z 1001a020 f   KNpcAttribModify.obj
 0001:00019040       ?MagicShieldV@KNpcAttribModify@@AAEXPAVKNpc@@PAX@Z 1001a040 f   KNpcAttribModify.obj
 0001:00019060       ?ReturnResP@KNpcAttribModify@@AAEXPAVKNpc@@PAX@Z 1001a060 f   KNpcAttribModify.obj
 0001:00019080       ?ExpEnhanceP@KNpcAttribModify@@AAEXPAVKNpc@@PAX@Z 1001a080 f   KNpcAttribModify.obj
 0001:000190c0       ?BlockRate@KNpcAttribModify@@AAEXPAVKNpc@@PAX@Z 1001a0c0 f   KNpcAttribModify.obj
 0001:000190e0       ?EnhanceHitP@KNpcAttribModify@@AAEXPAVKNpc@@PAX@Z 1001a0e0 f   KNpcAttribModify.obj
 0001:00019100       ?SkillEnhanceP@KNpcAttribModify@@AAEXPAVKNpc@@PAX@Z 1001a100 f   KNpcAttribModify.obj
 0001:00019120       ?SeriesEnhanceV@KNpcAttribModify@@AAEXPAVKNpc@@PAX@Z 1001a120 f   KNpcAttribModify.obj
 0001:00019140       ?SeriesResistV@KNpcAttribModify@@AAEXPAVKNpc@@PAX@Z 1001a140 f   KNpcAttribModify.obj
 0001:00019160       ?DamagePlusP@KNpcAttribModify@@AAEXPAVKNpc@@PAX@Z 1001a160 f   KNpcAttribModify.obj
 0001:00019180       ?AddPKNotP@KNpcAttribModify@@AAEXPAVKNpc@@PAX@Z 1001a180 f   KNpcAttribModify.obj
 0001:000191c0       ?BossDamagePlusP@KNpcAttribModify@@AAEXPAVKNpc@@PAX@Z 1001a1c0 f   KNpcAttribModify.obj
 0001:00019200       ?AppendEffect@KNpcAttribModify@@AAEXPAVKNpc@@PAX@Z 1001a200 f   KNpcAttribModify.obj
 0001:00019230       ?AddSkill@KNpcAttribModify@@AAEXPAVKNpc@@PAX@Z 1001a230 f   KNpcAttribModify.obj
 0001:00019270       ?AntiMagicShieldP@KNpcAttribModify@@AAEXPAVKNpc@@PAX@Z 1001a270 f   KNpcAttribModify.obj
 0001:000192b0       ?AntiStunReduceP@KNpcAttribModify@@AAEXPAVKNpc@@PAX@Z 1001a2b0 f   KNpcAttribModify.obj
 0001:000192f0       ?AntiCancelDamageP@KNpcAttribModify@@AAEXPAVKNpc@@PAX@Z 1001a2f0 f   KNpcAttribModify.obj
 0001:00019330       ?DoStunP@KNpcAttribModify@@AAEXPAVKNpc@@PAX@Z 1001a330 f   KNpcAttribModify.obj
 0001:00019370       ?Init@KNpcDeathCalcExp@@QAEXH@Z 1001a370 f   KNpcDeathCalcExp.obj
 0001:000193a0       ?Active@KNpcDeathCalcExp@@QAEXXZ 1001a3a0 f   KNpcDeathCalcExp.obj
 0001:00019560       ?AddDamage@KNpcDeathCalcExp@@QAEXHH@Z 1001a560 f   KNpcDeathCalcExp.obj
 0001:000196b0       ?CalcExp@KNpcDeathCalcExp@@QAEHXZ 1001a6b0 f   KNpcDeathCalcExp.obj
 0001:00019a20       ?Clear@KNpcDeathCalcExp@@QAEXXZ 1001aa20 f   KNpcDeathCalcExp.obj
 0001:00019a50       ??0KNpcFindPath@@QAE@XZ    1001aa50 f   KNpcFindPath.obj
 0001:00019a70       ?Init@KNpcFindPath@@QAEXH@Z 1001aa70 f   KNpcFindPath.obj
 0001:00019aa0       ?GetDir@KNpcFindPath@@QAEHHHHHHHPAH@Z 1001aaa0 f   KNpcFindPath.obj
 0001:00019ff0       ?Dir64To8@KNpcFindPath@@QAEHH@Z 1001aff0 f   KNpcFindPath.obj
 0001:0001a000       ?Dir8To64@KNpcFindPath@@QAEHH@Z 1001b000 f   KNpcFindPath.obj
 0001:0001a010       ?CheckDistance@KNpcFindPath@@QAEHHHHHH@Z 1001b010 f   KNpcFindPath.obj
 0001:0001a050       ?CheckBarrier@KNpcFindPath@@QAEHHH@Z 1001b050 f   KNpcFindPath.obj
 0001:0001a100       ??1KNpcSet@@QAE@XZ         1001b100 f i KNpcSet.obj
 0001:0001a150       ??0KNpcSet@@QAE@XZ         1001b150 f   KNpcSet.obj
 0001:0001a170       ?Init@KNpcSet@@QAEXXZ      1001b170 f   KNpcSet.obj
 0001:0001a370       ?LoadPlayerBaseValue@KNpcSet@@QAEXPAD@Z 1001b370 f   KNpcSet.obj
 0001:0001a460       ?IsNpcExist@KNpcSet@@QAEHHK@Z 1001b460 f   KNpcSet.obj
 0001:0001a490       ?GenOneRelation@KNpcSet@@AAE?AW4NPC_RELATION@@W4NPCKIND@@0W4NPCCAMP@@1@Z 1001b490 f   KNpcSet.obj
 0001:0001a520       ?GenRelationTable@KNpcSet@@AAEHXZ 1001b520 f   KNpcSet.obj
 0001:0001a580       ?SearchID@KNpcSet@@QAEHK@Z 1001b580 f   KNpcSet.obj
 0001:0001a5c0       ?SearchName@KNpcSet@@QAEHPAD@Z 1001b5c0 f   KNpcSet.obj
 0001:0001a610       ?SearchNameID@KNpcSet@@QAEHK@Z 1001b610 f   KNpcSet.obj
 0001:0001a670       ?FindFree@KNpcSet@@AAEHXZ  1001b670 f   KNpcSet.obj
 0001:0001a680       ?Add@KNpcSet@@QAEHHPAX@Z   1001b680 f   KNpcSet.obj
 0001:0001a770       ?Add@KNpcSet@@QAEHHHHH@Z   1001b770 f   KNpcSet.obj
 0001:0001a920       ?Add@KNpcSet@@QAEHHHHHHHH@Z 1001b920 f   KNpcSet.obj
 0001:0001aa60       ?Remove@KNpcSet@@QAEXH@Z   1001ba60 f   KNpcSet.obj
 0001:0001ac40       ?RemoveAll@KNpcSet@@QAEXXZ 1001bc40 f   KNpcSet.obj
 0001:0001acd0       ?SetID@KNpcSet@@AAEXH@Z    1001bcd0 f   KNpcSet.obj
 0001:0001ad00       ?GetDistance@KNpcSet@@SAHHH@Z 1001bd00 f   KNpcSet.obj
 0001:0001aeb0       ?GetDistanceSquare@KNpcSet@@SAHHH@Z 1001beb0 f   KNpcSet.obj
 0001:0001b040       ?GetNextIdx@KNpcSet@@QAEHH@Z 1001c040 f   KNpcSet.obj
 0001:0001b070       ?SyncNpc@KNpcSet@@QAEHKH@Z 1001c070 f   KNpcSet.obj
 0001:0001b0f0       ?ClearActivateFlagOfAllNpc@KNpcSet@@QAEXXZ 1001c0f0 f   KNpcSet.obj
 0001:0001b120       ?GetRelation@KNpcSet@@QAE?AW4NPC_RELATION@@HH@Z 1001c120 f   KNpcSet.obj
 0001:0001b480       ??M@YAHVKItemDropRateNode@@0@Z 1001c480 f   KNpcTemplate.obj
 0001:0001b4c0       ??8@YAHVKItemDropRateNode@@0@Z 1001c4c0 f   KNpcTemplate.obj
 0001:0001b510       ?InitNpcBaseData@KNpcTemplate@@QAEXH@Z 1001c510 f   KNpcTemplate.obj
 0001:0001b8e0       ?InitNpcLevelData@KNpcTemplate@@QAEXPAVKTabFile@@HPAVKLuaScript@@H@Z 1001c8e0 f   KNpcTemplate.obj
 0001:0001bbe0       ?GetNpcLevelDataFromScript@KNpcTemplate@@SAHPAVKLuaScript@@PADH1@Z 1001cbe0 f   KNpcTemplate.obj
 0001:0001bc80       ?GetNpcLevelDataFromScript@KNpcTemplate@@SAHPAVKLuaScript@@PADHNNN@Z 1001cc80 f   KNpcTemplate.obj
 0001:0001bd20       ?SkillString2Id@KNpcTemplate@@SAHPAD@Z 1001cd20 f   KNpcTemplate.obj
 0001:0001bdd0       ?DeleteTree@?$BinSTree@VKItemDropRateNode@@@@AAEXPAV?$TreeNode@VKItemDropRateNode@@@@@Z 1001cdd0 f i KNpcTemplate.obj
 0001:0001be10       ??1?$TreeNode@VKItemDropRateNode@@@@QAE@XZ 1001ce10 f i KNpcTemplate.obj
 0001:0001be80       ??0KPlayer@@QAE@XZ         1001ce80 f   KPlayer.obj
 0001:0001bf90       ??1KPlayerChat@@QAE@XZ     1001cf90 f i KPlayer.obj
 0001:0001bfb0       ??1CChatFriendTeam@@QAE@XZ 1001cfb0 f i KPlayer.obj
 0001:0001bfc0       ??1KPlayer@@QAE@XZ         1001cfc0 f   KPlayer.obj
 0001:0001c040       ?Release@KPlayer@@QAEXXZ   1001d040 f   KPlayer.obj
 0001:0001c230       ?SetPlayerIndex@KPlayer@@QAEXH@Z 1001d230 f   KPlayer.obj
 0001:0001c250       ?GetPlayerIndex@KPlayer@@QAEHXZ 1001d250 f   KPlayer.obj
 0001:0001c260       ?Active@KPlayer@@QAEXXZ    1001d260 f   KPlayer.obj
 0001:0001c450       ?ProcessMsg@KPlayer@@QAEXPAVKWorldMsgNode@@@Z 1001d450 f   KPlayer.obj
 0001:0001c460       ?IsWaitingRemove@KPlayer@@QAEHXZ 1001d460 f   KPlayer.obj
 0001:0001c480       ?WaitForRemove@KPlayer@@QAEXXZ 1001d480 f   KPlayer.obj
 0001:0001c490       ?IsLoginTimeOut@KPlayer@@QAEHXZ 1001d490 f   KPlayer.obj
 0001:0001c4d0       ?LoginTimeOut@KPlayer@@QAEXXZ 1001d4d0 f   KPlayer.obj
 0001:0001c500       ?Save@KPlayer@@QAEHXZ      1001d500 f   KPlayer.obj
 0001:0001c550       ?CanSave@KPlayer@@QAEHXZ   1001d550 f   KPlayer.obj
 0001:0001c5a0       ?SendSyncData@KPlayer@@QAEHAAHAAI@Z 1001d5a0 f   KPlayer.obj
 0001:0001c920       ?SendSyncData_Skill@KPlayer@@QAEHXZ 1001d920 f   KPlayer.obj
 0001:0001c9f0       ?SendCurNormalSyncData@KPlayer@@QAEXXZ 1001d9f0 f   KPlayer.obj
 0001:0001cab0       ?QuitGame@KPlayer@@QAEXH@Z 1001dab0 f   KPlayer.obj
 0001:0001cac0       ?BuyItem@KPlayer@@QAEXPAE@Z 1001dac0 f   KPlayer.obj
 0001:0001cb40       ?SellItem@KPlayer@@QAEXPAE@Z 1001db40 f   KPlayer.obj
 0001:0001cb90       ?GetLoginRevivalPos@KPlayer@@QAEXPAH00@Z 1001db90 f   KPlayer.obj
 0001:0001cbb0       ?GetDeathRevivalPos@KPlayer@@QAEXPAH00@Z 1001dbb0 f   KPlayer.obj
 0001:0001cbd0       ?SetTimer@KPlayer@@QAEXKH@Z 1001dbd0 f   KPlayer.obj
 0001:0001cc10       ?CloseTimer@KPlayer@@QAEXXZ 1001dc10 f   KPlayer.obj
 0001:0001cc30       ?SetRevivalPos@KPlayer@@QAEXHH@Z 1001dc30 f   KPlayer.obj
 0001:0001ccd0       ?S2CSendTeamInfo@KPlayer@@QAEXPAE@Z 1001dcd0 f   KPlayer.obj
 0001:0001cd00       ?SendSelfTeamInfo@KPlayer@@QAEXXZ 1001dd00 f   KPlayer.obj
 0001:0001cf10       ?CreateTeam@KPlayer@@QAEHPAE@Z 1001df10 f   KPlayer.obj
 0001:0001cf50       ?SetTeamState@KPlayer@@QAEHPAE@Z 1001df50 f   KPlayer.obj
 0001:0001cfc0       ?S2CSendAddTeamInfo@KPlayer@@QAEHPAE@Z 1001dfc0 f   KPlayer.obj
 0001:0001d270       ?AddTeamMember@KPlayer@@QAEHPAE@Z 1001e270 f   KPlayer.obj
 0001:0001d7f0       ?LeaveTeam@KPlayer@@QAEXPAE@Z 1001e7f0 f   KPlayer.obj
 0001:0001d9d0       ?TeamKickOne@KPlayer@@QAEXPAE@Z 1001e9d0 f   KPlayer.obj
 0001:0001dc20       ?TeamChangeCaptain@KPlayer@@QAEXPAE@Z 1001ec20 f   KPlayer.obj
 0001:0001e070       ?TeamDismiss@KPlayer@@QAEXPAE@Z 1001f070 f   KPlayer.obj
 0001:0001e300       ?SendFactionData@KPlayer@@AAEXXZ 1001f300 f   KPlayer.obj
 0001:0001e380       ?GetAboutPos@KPlayer@@QAEXPAUKMapPos@@@Z 1001f380 f   KPlayer.obj
 0001:0001e4a0       ?FindAroundPlayer@KPlayer@@QAEHK@Z 1001f4a0 f   KPlayer.obj
 0001:0001e590       ?CheckPlayerAround@KPlayer@@QAEHH@Z 1001f590 f   KPlayer.obj
 0001:0001e690       ?FindAroundNpc@KPlayer@@QAEHK@Z 1001f690 f   KPlayer.obj
 0001:0001e780       ?ResetProp@KPlayer@@QAEXE@Z 1001f780 f   KPlayer.obj
 0001:0001e9d0       ?AddBaseStrength@KPlayer@@AAEXH@Z 1001f9d0 f   KPlayer.obj
 0001:0001ea80       ?AddBaseDexterity@KPlayer@@AAEXH@Z 1001fa80 f   KPlayer.obj
 0001:0001eb40       ?AddBaseVitality@KPlayer@@AAEXH@Z 1001fb40 f   KPlayer.obj
 0001:0001ec70       ?AddBaseEngergy@KPlayer@@AAEXH@Z 1001fc70 f   KPlayer.obj
 0001:0001ed60       ?ChangeCurStrength@KPlayer@@QAEXH@Z 1001fd60 f   KPlayer.obj
 0001:0001ed80       ?ChangeCurDexterity@KPlayer@@QAEXH@Z 1001fd80 f   KPlayer.obj
 0001:0001edf0       ?ChangeCurVitality@KPlayer@@QAEXH@Z 1001fdf0 f   KPlayer.obj
 0001:0001eea0       ?ChangeCurEngergy@KPlayer@@QAEXH@Z 1001fea0 f   KPlayer.obj
 0001:0001ef00       ?SetNpcPhysicsDamage@KPlayer@@AAEXXZ 1001ff00 f   KPlayer.obj
 0001:0001efc0       ?SetNpcAttackRating@KPlayer@@AAEXXZ 1001ffc0 f   KPlayer.obj
 0001:0001eff0       ?SetNpcDefence@KPlayer@@AAEXXZ 1001fff0 f   KPlayer.obj
 0001:0001f020       ?AddExp@KPlayer@@QAEXHH@Z  10020020 f   KPlayer.obj
 0001:0001f4a0       ?AddSelfExp@KPlayer@@QAEXHH@Z 100204a0 f   KPlayer.obj
 0001:0001f600       ?DirectAddExp@KPlayer@@QAEXH@Z 10020600 f   KPlayer.obj
 0001:0001f6b0       ?LevelUp@KPlayer@@QAEX_N0F0@Z 100206b0 f   KPlayer.obj
 0001:0001fcd0       ?UpdataCurData@KPlayer@@QAEXXZ 10020cd0 f   KPlayer.obj
 0001:000206d0       ?ReCalcEquip@KPlayer@@QAEXXZ 100216d0 f   KPlayer.obj
 0001:00020790       ?ReCalcState@KPlayer@@QAEXXZ 10021790 f   KPlayer.obj
 0001:000207b0       ?AddLeadExp@KPlayer@@QAEXH@Z 100217b0 f   KPlayer.obj
 0001:00020870       ?LevelAddBaseLifeMax@KPlayer@@AAEXF@Z 10021870 f   KPlayer.obj
 0001:000208e0       ?LevelAddBaseStaminaMax@KPlayer@@AAEXF@Z 100218e0 f   KPlayer.obj
 0001:00020950       ?LevelAddBaseManaMax@KPlayer@@AAEXF@Z 10021950 f   KPlayer.obj
 0001:000209c0       ?ChangePlayerCamp@KPlayer@@QAEXH@Z 100219c0 f   KPlayer.obj
 0001:000209f0       ?EnchaseItem@KPlayer@@QAEXPAE@Z 100219f0 f   KPlayer.obj
 0001:00022950       ?ReturnItemComp@KPlayer@@QAEXH@Z 10023950 f   KPlayer.obj
 0001:00022a90       ?ReturnItemTrade@KPlayer@@QAEXH@Z 10023a90 f   KPlayer.obj
 0001:00022bd0       ?SendBroadCastTitle@KPlayer@@QAEXXZ 10023bd0 f   KPlayer.obj
 0001:00022c60       ?QueryChannel@KPlayer@@QAEXXZ 10023c60 f   KPlayer.obj
 0001:00022ca0       ?ServerActiveSale@KPlayer@@QAEXPAE@Z 10023ca0 f   KPlayer.obj
 0001:00022ef0       ?SplitItem@KPlayer@@QAEXPAE@Z 10023ef0 f   KPlayer.obj
 0001:000231e0       ?DealDiceGame@KPlayer@@QAEXPAE@Z 100241e0 f   KPlayer.obj
 0001:00023250       ?BuyMarket@KPlayer@@QAEXPAE@Z 10024250 f   KPlayer.obj
 0001:000232a0       ?ServerClickShop@KPlayer@@QAEXPAE@Z 100242a0 f   KPlayer.obj
 0001:000235f0       ?ServerLockItem@KPlayer@@QAEXPAE@Z 100245f0 f   KPlayer.obj
 0001:00023c40       ?UpdateItemTime@KPlayer@@QAEXXZ 10024c40 f   KPlayer.obj
 0001:00023e80       ?WriteItemDiary@KPlayer@@QAEXFHHHPAD@Z 10024e80 f   KPlayer.obj
 0001:00024800       ?WriteSuperShop@KPlayer@@QAEXHH@Z 10025800 f   KPlayer.obj
 0001:00024920       ?WriteLogin@KPlayer@@QAEXXZ 10025920 f   KPlayer.obj
 0001:00024a70       ?AddFaction@KPlayer@@QAEHPAD@Z 10025a70 f   KPlayer.obj
 0001:00024aa0       ?AddFaction@KPlayer@@QAEHH@Z 10025aa0 f   KPlayer.obj
 0001:00024ad0       ?LeaveCurFaction@KPlayer@@QAEHXZ 10025ad0 f   KPlayer.obj
 0001:00024b20       ?TaskClearTempVal@KPlayer@@QAEXXZ 10025b20 f   KPlayer.obj
 0001:00024b30       ?SendCMDOpenWH@KPlayer@@QAEXXZ 10025b30 f   KPlayer.obj
 0001:00024b90       ?LockServerWH@KPlayer@@QAEXXZ 10025b90 f   KPlayer.obj
 0001:00024c00       ?SendCMDCheckPass@KPlayer@@QAEXI@Z 10025c00 f   KPlayer.obj
 0001:00024c80       ?ServerChangePass@KPlayer@@QAEXIH@Z 10025c80 f   KPlayer.obj
 0001:00024d40       ?ServerSendChat@KPlayer@@QAEXPAE@Z 10025d40 f   KPlayer.obj
 0001:00024d60       ?AddPropPoint@KPlayer@@QAEXII@Z 10025d60 f   KPlayer.obj
 0001:00024dc0       ?AddBaseAttribute@KPlayer@@QAEXPAE@Z 10025dc0 f   KPlayer.obj
 0001:00024e30       ?ResetSkillPoint@KPlayer@@QAEXXZ 10025e30 f   KPlayer.obj
 0001:00024fd0       ?AddSkillPoint@KPlayer@@QAEXPAEH@Z 10025fd0 f   KPlayer.obj
 0001:00025390       ?ServerPickUpItem@KPlayer@@QAEHPAE@Z 10026390 f   KPlayer.obj
 0001:00025be0       ?EatItem@KPlayer@@QAEXPAE@Z 10026be0 f   KPlayer.obj
 0001:00025e30       ?ServerMoveItem@KPlayer@@QAEXPAE@Z 10026e30 f   KPlayer.obj
 0001:00026160       ?ServerRemoveAttrib@KPlayer@@QAEXXZ 10027160 f   KPlayer.obj
 0001:00026200       ?ServerApplyAttrib@KPlayer@@QAEXXZ 10027200 f   KPlayer.obj
 0001:000262a0       ?ServerSystemBox@KPlayer@@QAEXF@Z 100272a0 f   KPlayer.obj
 0001:000262f0       ?ServerThrowAwayItem@KPlayer@@QAEXPAE@Z 100272f0 f   KPlayer.obj
 0001:00026550       ?ChatSetTakeChannel@KPlayer@@QAEXPAE@Z 10027550 f   KPlayer.obj
 0001:00026570       ?ChatTransmitApplyAddFriend@KPlayer@@QAEXPAE@Z 10027570 f   KPlayer.obj
 0001:00026680       ?ChatAddFriend@KPlayer@@QAEHPAE@Z 10027680 f   KPlayer.obj
 0001:00026760       ?ChatRefuseFriend@KPlayer@@QAEXPAE@Z 10027760 f   KPlayer.obj
 0001:00026860       ?ChatResendAllFriend@KPlayer@@QAEXPAE@Z 10027860 f   KPlayer.obj
 0001:000268a0       ?ChatSendOneFriendData@KPlayer@@QAEXPAE@Z 100278a0 f   KPlayer.obj
 0001:000268c0       ?TradeApplyOpen@KPlayer@@QAEXPAE@Z 100278c0 f   KPlayer.obj
 0001:00026950       ?TradeApplyClose@KPlayer@@QAEXPAE@Z 10027950 f   KPlayer.obj
 0001:00026970       ?TradeApplyStart@KPlayer@@QAEXPAE@Z 10027970 f   KPlayer.obj
 0001:00026a30       ?TradeDecision@KPlayer@@QAEXPAE@Z 10027a30 f   KPlayer.obj
 0001:00027160       ?c2sTradeReplyStart@KPlayer@@QAEXPAE@Z 10028160 f   KPlayer.obj
 0001:00027440       ?SyncTradeState@KPlayer@@QAEXXZ 10028440 f   KPlayer.obj
 0001:00027590       ?SendEquipItemInfo@KPlayer@@QAEXH@Z 10028590 f   KPlayer.obj
 0001:00027a60       ?UseTownPortal@KPlayer@@QAEEXZ 10028a60 f   KPlayer.obj
 0001:00027b90       ?BackToTownPortal@KPlayer@@QAEXXZ 10028b90 f   KPlayer.obj
 0001:00027c00       ?Revive@KPlayer@@QAEXH@Z   10028c00 f   KPlayer.obj
 0001:00027dd0       ?Pay@KPlayer@@QAEHH@Z      10028dd0 f   KPlayer.obj
 0001:00027df0       ?Earn@KPlayer@@QAEHH@Z     10028df0 f   KPlayer.obj
 0001:00027e10       ?LaunchPlayer@KPlayer@@QAEXXZ 10028e10 f   KPlayer.obj
 0001:00027f30       ?ExecuteScript@KPlayer@@QAEHPAD0H0@Z 10028f30 f   KPlayer.obj
 0001:00027f80       ?ExecuteScript@KPlayer@@QAEHKPADH0@Z 10028f80 f   KPlayer.obj
 0001:00028160       ?ExecuteScript2@KPlayer@@QAEHKPADHH@Z 10029160 f   KPlayer.obj
 0001:00028340       ?DoScript@KPlayer@@QAEHPAD@Z 10029340 f   KPlayer.obj
 0001:000284b0       ??_EKLuaScript@@UAEPAXI@Z  100294b0 f i KPlayer.obj
 0001:000284b0       ??_GKLuaScript@@UAEPAXI@Z  100294b0 f i KPlayer.obj
 0001:000284d0       ?DoScriptAction@KPlayer@@QAEXPAUPLAYER_SCRIPTACTION_SYNC@@@Z 100294d0 f   KPlayer.obj
 0001:00028520       ?ProcessPlayerSelectFromUI_GetInput@KPlayer@@QAEXPAE@Z 10029520 f   KPlayer.obj
 0001:000285e0       ?ProcessPlayerSelectFromUI@KPlayer@@QAEXPAE@Z 100295e0 f   KPlayer.obj
 0001:000286d0       ?ChatFriendOnLine@KPlayer@@QAEXKH@Z 100296d0 f   KPlayer.obj
 0001:000287a0       ?GetFactionName@KPlayer@@QAEXPAD@Z 100297a0 f   KPlayer.obj
 0001:000287c0       ?AddTempTaskValue@KPlayer@@QAEHPAX@Z 100297c0 f   KPlayer.obj
 0001:000287e0       ?DialogNpc@KPlayer@@QAEXPAE@Z 100297e0 f   KPlayer.obj
 0001:00028bb0       ?IsState@KPlayer@@QAEHF@Z  10029bb0 f   KPlayer.obj
 0001:00028be0       ?GetMenuState@KPlayer@@QAEHXZ 10029be0 f   KPlayer.obj
 0001:00028bf0       ?SetFirstDamage@KPlayer@@QAEXXZ 10029bf0 f   KPlayer.obj
 0001:00028c60       ?SetBaseAttackRating@KPlayer@@QAEXXZ 10029c60 f   KPlayer.obj
 0001:00028c90       ?SetBaseDefence@KPlayer@@QAEXXZ 10029c90 f   KPlayer.obj
 0001:00028cc0       ?SetBaseResistData@KPlayer@@QAEXXZ 10029cc0 f   KPlayer.obj
 0001:00028ea0       ?SetBaseSpeedAndRadius@KPlayer@@QAEXXZ 10029ea0 f   KPlayer.obj
 0001:00028f50       ?CheckCanActiveSale@KPlayer@@QAEHXZ 10029f50 f   KPlayer.obj
 0001:00028fa0       ?SetNpcDamageAttrib@KPlayer@@QAEXXZ 10029fa0 f   KPlayer.obj
 0001:00028fb0       ?TobeExchangeServer@KPlayer@@QAEXKHH@Z 10029fb0 f   KPlayer.obj
 0001:00028ff0       ?IsExchangingServer@KPlayer@@QAEHXZ 10029ff0 f   KPlayer.obj
 0001:00029000       ?SetLastNetOperationTime@KPlayer@@QAEXH@Z 1002a000 f   KPlayer.obj
 0001:00029080       ?CreateTong@KPlayer@@QAEHHPAD@Z 1002a080 f   KPlayer.obj
 0001:000290a0       ?RepairItem@KPlayer@@QAEXK@Z 1002a0a0 f   KPlayer.obj
 0001:00029170       ?SetPricedItem@KPlayer@@QAEXKH@Z 1002a170 f   KPlayer.obj
 0001:000291d0       ?GetExtPoint@KPlayer@@QAEHXZ 1002a1d0 f   KPlayer.obj
 0001:000291e0       ?SetExtPoint@KPlayer@@QAEXHH@Z 1002a1e0 f   KPlayer.obj
 0001:00029210       ?PayExtPoint@KPlayer@@QAEHH@Z 1002a210 f   KPlayer.obj
 0001:00029240       ?UpdateEquipExTime@KPlayer@@QAEX_N@Z 1002a240 f   KPlayer.obj
 0001:00029290       ?GoCrazy@KPlayer@@QAEXXZ   1002a290 f   KPlayer.obj
 0001:00029370       ?DoMad@KPlayer@@QAEXXZ     1002a370 f   KPlayer.obj
 0001:00029410       ?CheckMapSale@KPlayer@@QAEEXZ 1002a410 f   KPlayer.obj
 0001:000294b0       ?Release@KPlayerChat@@QAEXXZ 1002a4b0 f   KPlayerChat.obj
 0001:00029520       ?CheckExist@KPlayerChat@@QAEHK@Z 1002a520 f   KPlayerChat.obj
 0001:00029570       ?CheckExist@KPlayerChat@@QAEHPAD@Z 1002a570 f   KPlayerChat.obj
 0001:00029610       ?GetFriendNode@KPlayerChat@@QAEPAVCChatFriend@@K@Z 1002a610 f   KPlayerChat.obj
 0001:00029660       ?GetTeamNo@KPlayerChat@@QAEHK@Z 1002a660 f   KPlayerChat.obj
 0001:000296b0       ?GetName@KPlayerChat@@QAEHKPAD@Z 1002a6b0 f   KPlayerChat.obj
 0001:00029720       ?SetTakeChannel@KPlayerChat@@QAEXK@Z 1002a720 f   KPlayerChat.obj
 0001:00029750       ?ServerSendChat@KPlayerChat@@QAEXHPAE@Z 1002a750 f   KPlayerChat.obj
 0001:0002a260       ?DataBaseAddOne@KPlayerChat@@QAEXHKPAD@Z 1002b260 f   KPlayerChat.obj
 0001:0002a280       ?AddFriendData@KPlayerChat@@QAEXHH@Z 1002b280 f   KPlayerChat.obj
 0001:0002a3d0       ??_GCChatFriend@@UAEPAXI@Z 1002b3d0 f i KPlayerChat.obj
 0001:0002a3d0       ??_ECChatFriend@@UAEPAXI@Z 1002b3d0 f i KPlayerChat.obj
 0001:0002a3f0       ??1CChatFriend@@UAE@XZ     1002b3f0 f i KPlayerChat.obj
 0001:0002a400       ?ResendOneFriendData@KPlayerChat@@QAEXKH@Z 1002b400 f   KPlayerChat.obj
 0001:0002a4b0       ?SyncFriendData@KPlayerChat@@QAEHHAAI@Z 1002b4b0 f   KPlayerChat.obj
 0001:0002a640       ?StartSendFriendData@KPlayerChat@@QAEXXZ 1002b640 f   KPlayerChat.obj
 0001:0002a670       ?DeleteFriendData@KPlayerChat@@QAEXKH@Z 1002b670 f   KPlayerChat.obj
 0001:0002a740       ?OffLine@KPlayerChat@@QAEXK@Z 1002b740 f   KPlayerChat.obj
 0001:0002a790       ?GetMsgOffLine@KPlayerChat@@QAEXKH@Z 1002b790 f   KPlayerChat.obj
 0001:0002a820       ?TimerAdd@KPlayerChat@@QAEXXZ 1002b820 f   KPlayerChat.obj
 0001:0002a830       ?CheckTalkChannel@KPlayerChat@@QAEHH@Z 1002b830 f   KPlayerChat.obj
 0001:0002a860       ?SendSystemInfo@KPlayerChat@@SAXHHPAD0H@Z 1002b860 f   KPlayerChat.obj
 0001:0002a990       ?SendGlobalSystemInfo@KPlayerChat@@SAXPAD0H@Z 1002b990 f   KPlayerChat.obj
 0001:0002aa30       ?SendInfoToGM@KPlayerChat@@SAXPAD00H@Z 1002ba30 f   KPlayerChat.obj
 0001:0002ab30       ?SendInfoToIP@KPlayerChat@@SAXKKPAD00H@Z 1002bb30 f   KPlayerChat.obj
 0001:0002ac20       ?MakeLove@KPlayerChat@@SAXPAD0E@Z 1002bc20 f   KPlayerChat.obj
 0001:0002ad40       ?MakeEnemy@KPlayerChat@@SAXPAD0@Z 1002bd40 f   KPlayerChat.obj
 0001:0002ae50       ??0CChatFriendTeam@@QAE@XZ 1002be50 f   KPlayerChat.obj
 0001:0002aea0       ?Release@CChatFriendTeam@@QAEXXZ 1002bea0 f   KPlayerChat.obj
 0001:0002af10       ?DataBaseAddOne@CChatFriendTeam@@QAEXHKPAD@Z 1002bf10 f   KPlayerChat.obj
 0001:0002b040       ??0KList@@QAE@XZ           1002c040 f i KPlayerDBFuns.obj
 0001:0002b090       ?AddDBPlayer@KPlayer@@QAEHPADHPAK@Z 1002c090 f   KPlayerDBFuns.obj
 0001:0002b0a0       ?LoadDBPlayerInfo@KPlayer@@QAEHPAEAAHAAI@Z 1002c0a0 f   KPlayerDBFuns.obj
 0001:0002b310       ?UpdateDBPlayerInfo@KPlayer@@QAEHPAE@Z 1002c310 f   KPlayerDBFuns.obj
 0001:0002b360       ?LoadPlayerBaseInfo@KPlayer@@AAEHPAEAAPAEAAI@Z 1002c360 f   KPlayerDBFuns.obj
 0001:0002b840       ?LoadPlayerItemList@KPlayer@@AAEHPAEAAPAEAAI@Z 1002c840 f   KPlayerDBFuns.obj
 0001:0002be80       ?LoadPlayerFightSkillList@KPlayer@@AAEHPAEAAPAEAAI@Z 1002ce80 f   KPlayerDBFuns.obj
 0001:0002bf40       ?LoadPlayerLifeSkilllList@KPlayer@@AAEHPAEAAPAEAAI@Z 1002cf40 f   KPlayerDBFuns.obj
 0001:0002bfd0       ?LoadPlayerTaskList@KPlayer@@AAEHPAEAAPAEAAI@Z 1002cfd0 f   KPlayerDBFuns.obj
 0001:0002c0d0       ?LoadPlayerTaskListPlus@KPlayer@@AAEHPAEAAPAEAAI@Z 1002d0d0 f   KPlayerDBFuns.obj
 0001:0002c130       ?SavePlayerBaseInfo@KPlayer@@AAEHPAE@Z 1002d130 f   KPlayerDBFuns.obj
 0001:0002c470       ?SavePlayerItemList@KPlayer@@AAEHPAE@Z 1002d470 f   KPlayerDBFuns.obj
 0001:0002c6c0       ?SavePlayerFightSkillList@KPlayer@@AAEHPAE@Z 1002d6c0 f   KPlayerDBFuns.obj
 0001:0002c740       ?SavePlayerLifeSkilllList@KPlayer@@AAEHPAE@Z 1002d740 f   KPlayerDBFuns.obj
 0001:0002c760       ?SavePlayerFriendList@KPlayer@@AAEHPAE@Z 1002d760 f   KPlayerDBFuns.obj
 0001:0002c800       ?SavePlayerTaskList@KPlayer@@AAEHPAE@Z 1002d800 f   KPlayerDBFuns.obj
 0001:0002c950       ??0KPlayerFaction@@QAE@XZ  1002d950 f   KPlayerFaction.obj
 0001:0002c960       ?Release@KPlayerFaction@@QAEXXZ 1002d960 f   KPlayerFaction.obj
 0001:0002c980       ?AddFaction@KPlayerFaction@@QAEHPAD@Z 1002d980 f   KPlayerFaction.obj
 0001:0002c9b0       ?AddFaction@KPlayerFaction@@QAEHH@Z 1002d9b0 f   KPlayerFaction.obj
 0001:0002c9e0       ?LeaveFaction@KPlayerFaction@@QAEXXZ 1002d9e0 f   KPlayerFaction.obj
 0001:0002c9f0       ?GetGurFactionCamp@KPlayerFaction@@QAEHXZ 1002d9f0 f   KPlayerFaction.obj
 0001:0002ca10       ?GetCurFactionNo@KPlayerFaction@@QAEHXZ 1002da10 f   KPlayerFaction.obj
 0001:0002ca20       ?GetCurFactionName@KPlayerFaction@@QAEXPAD@Z 1002da20 f   KPlayerFaction.obj
 0001:0002ca70       ??0KPlayerMenuState@@QAE@XZ 1002da70 f   KPlayerMenuState.obj
 0001:0002ca80       ?Release@KPlayerMenuState@@QAEXXZ 1002da80 f   KPlayerMenuState.obj
 0001:0002cac0       ?BackupState@KPlayerMenuState@@QAEXXZ 1002dac0 f   KPlayerMenuState.obj
 0001:0002cae0       ?RestoreState@KPlayerMenuState@@QAEXXZ 1002dae0 f   KPlayerMenuState.obj
 0001:0002cb00       ?SetState@KPlayerMenuState@@QAEXHHPADHK@Z 1002db00 f   KPlayerMenuState.obj
 0001:0002cca0       ?RestoreBackupState@KPlayerMenuState@@QAEXH@Z 1002dca0 f   KPlayerMenuState.obj
 0001:0002cd40       ?Init@KPlayerMenuStateGraph@@QAEHXZ 1002dd40 f   KPlayerMenuState.obj
 0001:0002ce00       ?GetStateSpr@KPlayerMenuStateGraph@@QAEXHPAD@Z 1002de00 f   KPlayerMenuState.obj
 0001:0002ce40       ??0KPlayerPK@@QAE@XZ       1002de40 f   KPlayerPK.obj
 0001:0002ce50       ?Init@KPlayerPK@@QAEXH@Z   1002de50 f   KPlayerPK.obj
 0001:0002ce80       ?Active@KPlayerPK@@QAEXXZ  1002de80 f   KPlayerPK.obj
 0001:0002ce90       ?SetNormalPKState@KPlayerPK@@QAEXHH@Z 1002de90 f   KPlayerPK.obj
 0001:0002d0c0       ?GetNormalPKState@KPlayerPK@@QAEHXZ 1002e0c0 f   KPlayerPK.obj
 0001:0002d0d0       ?EnmityPKClose@KPlayerPK@@QAEXXZ 1002e0d0 f   KPlayerPK.obj
 0001:0002d200       ?EnmityPKOpen@KPlayerPK@@QAEHH@Z 1002e200 f   KPlayerPK.obj
 0001:0002d700       ?GetEnmityPKState@KPlayerPK@@QAEHXZ 1002e700 f   KPlayerPK.obj
 0001:0002d710       ?GetEnmityPKAim@KPlayerPK@@QAEHXZ 1002e710 f   KPlayerPK.obj
 0001:0002d720       ?ExercisePKClose@KPlayerPK@@QAEXXZ 1002e720 f   KPlayerPK.obj
 0001:0002d830       ?ExercisePKOpen@KPlayerPK@@QAEHH@Z 1002e830 f   KPlayerPK.obj
 0001:0002da70       ?GetExercisePKAim@KPlayerPK@@QAEHXZ 1002ea70 f   KPlayerPK.obj
 0001:0002da80       ?SetPKValue@KPlayerPK@@QAEXH@Z 1002ea80 f   KPlayerPK.obj
 0001:0002db00       ?GetPKValue@KPlayerPK@@QAEHXZ 1002eb00 f   KPlayerPK.obj
 0001:0002db10       ?AddPKValue@KPlayerPK@@QAEXH@Z 1002eb10 f   KPlayerPK.obj
 0001:0002db90       ?CloseAll@KPlayerPK@@QAEXXZ 1002eb90 f   KPlayerPK.obj
 0001:0002dbb0       ?EnmityPKCountDown@KPlayerPK@@QAEXXZ 1002ebb0 f   KPlayerPK.obj
 0001:0002dd30       ??1KPlayerSet@@QAE@XZ      1002ed30 f i KPlayerSet.obj
 0001:0002dd80       ??0KPlayerSet@@QAE@XZ      1002ed80 f   KPlayerSet.obj
 0001:0002de10       ?Init@KPlayerSet@@QAEHXZ   1002ee10 f   KPlayerSet.obj
 0001:0002e540       ?FindFree@KPlayerSet@@AAEHXZ 1002f540 f   KPlayerSet.obj
 0001:0002e550       ?FindSame@KPlayerSet@@QAEHK@Z 1002f550 f   KPlayerSet.obj
 0001:0002e5a0       ?GetFirstPlayer@KPlayerSet@@QAEHXZ 1002f5a0 f   KPlayerSet.obj
 0001:0002e5c0       ?GetNextPlayer@KPlayerSet@@QAEHXZ 1002f5c0 f   KPlayerSet.obj
 0001:0002e5e0       ?Add@KPlayerSet@@QAEHPADPAXK0@Z 1002f5e0 f   KPlayerSet.obj
 0001:0002e730       ?Broadcasting@KPlayerSet@@QAEHPADH@Z 1002f730 f   KPlayerSet.obj
 0001:0002e7a0       ?SendWelcomeMsg@KPlayerSet@@AAEXH@Z 1002f7a0 f   KPlayerSet.obj
 0001:0002e890       ?ReloadWelcomeMsg@KPlayerSet@@QAEXXZ 1002f890 f   KPlayerSet.obj
 0001:0002e8a0       ?PrepareRemove@KPlayerSet@@QAEXH@Z 1002f8a0 f   KPlayerSet.obj
 0001:0002e930       ?PrepareLoginFailed@KPlayerSet@@QAEXH@Z 1002f930 f   KPlayerSet.obj
 0001:0002e9e0       ?PrepareExchange@KPlayerSet@@QAEXH@Z 1002f9e0 f   KPlayerSet.obj
 0001:0002ea70       ?RemoveQuiting@KPlayerSet@@QAEXH@Z 1002fa70 f   KPlayerSet.obj
 0001:0002ed20       ?RemoveLoginTimeOut@KPlayerSet@@QAEXH@Z 1002fd20 f   KPlayerSet.obj
 0001:0002ee60       ?RemoveExchanging@KPlayerSet@@QAEXH@Z 1002fe60 f   KPlayerSet.obj
 0001:0002f0e0       ?ProcessClientMessage@KPlayerSet@@QAEXHPBDH@Z 100300e0 f   KPlayerSet.obj
 0001:0002f130       ??0KLevelAdd@@QAE@XZ       10030130 f   KPlayerSet.obj
 0001:0002f1d0       ?Init@KLevelAdd@@QAEHXZ    100301d0 f   KPlayerSet.obj
 0001:0002f3c0       ?GetLevelExp@KLevelAdd@@QAEHH@Z 100303c0 f   KPlayerSet.obj
 0001:0002f3e0       ?GetLifePerLevel@KLevelAdd@@QAEHH@Z 100303e0 f   KPlayerSet.obj
 0001:0002f400       ?GetStaminaPerLevel@KLevelAdd@@QAEHH@Z 10030400 f   KPlayerSet.obj
 0001:0002f420       ?GetManaPerLevel@KLevelAdd@@QAEHH@Z 10030420 f   KPlayerSet.obj
 0001:0002f440       ?GetLifePerVitality@KLevelAdd@@QAEHH@Z 10030440 f   KPlayerSet.obj
 0001:0002f460       ?GetStaminaPerVitality@KLevelAdd@@QAEHH@Z 10030460 f   KPlayerSet.obj
 0001:0002f480       ?GetManaPerEnergy@KLevelAdd@@QAEHH@Z 10030480 f   KPlayerSet.obj
 0001:0002f4a0       ?GetLeadExpShare@KLevelAdd@@QAEHH@Z 100304a0 f   KPlayerSet.obj
 0001:0002f4c0       ?GetFireResist@KLevelAdd@@QAEHHH@Z 100304c0 f   KPlayerSet.obj
 0001:0002f510       ?GetColdResist@KLevelAdd@@QAEHHH@Z 10030510 f   KPlayerSet.obj
 0001:0002f560       ?GetPoisonResist@KLevelAdd@@QAEHHH@Z 10030560 f   KPlayerSet.obj
 0001:0002f5b0       ?GetLightResist@KLevelAdd@@QAEHHH@Z 100305b0 f   KPlayerSet.obj
 0001:0002f600       ?GetPhysicsResist@KLevelAdd@@QAEHHH@Z 10030600 f   KPlayerSet.obj
 0001:0002f650       ??0KTeamLeadExp@@QAE@XZ    10030650 f   KPlayerSet.obj
 0001:0002f670       ?Init@KTeamLeadExp@@QAEHXZ 10030670 f   KPlayerSet.obj
 0001:0002f740       ?GetLevel@KTeamLeadExp@@QAEHKH@Z 10030740 f   KPlayerSet.obj
 0001:0002f790       ?GetMemNumFromExp@KTeamLeadExp@@QAEHK@Z 10030790 f   KPlayerSet.obj
 0001:0002f7b0       ?GetMemNumFromLevel@KTeamLeadExp@@QAEHH@Z 100307b0 f   KPlayerSet.obj
 0001:0002f7d0       ?GetLevelExp@KTeamLeadExp@@QAEHH@Z 100307d0 f   KPlayerSet.obj
 0001:0002f7f0       ?Activate@KPlayerSet@@QAEXXZ 100307f0 f   KPlayerSet.obj
 0001:0002f800       ??0KNewPlayerAttribute@@QAE@XZ 10030800 f   KPlayerSet.obj
 0001:0002f850       ?Init@KNewPlayerAttribute@@QAEHXZ 10030850 f   KPlayerSet.obj
 0001:0002f970       ?GetPlayerName@KPlayerSet@@QAEHHPAD@Z 10030970 f   KPlayerSet.obj
 0001:0002f9e0       ?GetPlayerAccount@KPlayerSet@@QAEHHPAD@Z 100309e0 f   KPlayerSet.obj
 0001:0002fa50       ?AttachPlayer@KPlayerSet@@QAEHKPAU_GUID@@@Z 10030a50 f   KPlayerSet.obj
 0001:0002faf0       ?GetPlayerIndexByGuid@KPlayerSet@@QAEHPAU_GUID@@@Z 10030af0 f   KPlayerSet.obj
 0001:0002fb80       ?GetInt@KPlayerSet@@QAEHE@Z 10030b80 f   KPlayerSet.obj
 0001:0002fba0       ?SetInt@KPlayerSet@@QAEXEH@Z 10030ba0 f   KPlayerSet.obj
 0001:0002fc00       ?GetGroup@KPlayerSet@@QAEXFPAH0000PAD1@Z 10030c00 f   KPlayerSet.obj
 0001:0002fcf0       ?FindGroupByID@KPlayerSet@@QAEHH@Z 10030cf0 f   KPlayerSet.obj
 0001:0002fd20       ?AddGroup@KPlayerSet@@QAEHPBDH@Z 10030d20 f   KPlayerSet.obj
 0001:000300a0       ?SetGroupValue@KPlayerSet@@QAEXFHHHHHPBD0@Z 100310a0 f   KPlayerSet.obj
 0001:00030260       ?CloseDataFile@KPlayerSet@@QAEXXZ 10031260 f   KPlayerSet.obj
 0001:000302c0       ?ArrangeStat@KPlayerSet@@QAEXXZ 100312c0 f   KPlayerSet.obj
 0001:00030480       ?AutoSave@KPlayerSet@@QAEXXZ 10031480 f   KPlayerSet.obj
 0001:000304a0       ?WriteLog@KPlayerSet@@QAEXPAD0@Z 100314a0 f   KPlayerSet.obj
 0001:00030610       ??0KPlayerTask@@QAE@XZ     10031610 f   KPlayerTask.obj
 0001:00030620       ?Release@KPlayerTask@@QAEXXZ 10031620 f   KPlayerTask.obj
 0001:00030650       ?ClearTempVar@KPlayerTask@@QAEXXZ 10031650 f   KPlayerTask.obj
 0001:00030670       ?GetSaveVal@KPlayerTask@@QAEHH@Z 10031670 f   KPlayerTask.obj
 0001:000306a0       ?SetSaveVal@KPlayerTask@@QAEXHH@Z 100316a0 f   KPlayerTask.obj
 0001:000306d0       ?GetClearVal@KPlayerTask@@QAEHH@Z 100316d0 f   KPlayerTask.obj
 0001:000306f0       ?SetClearVal@KPlayerTask@@QAEXHH@Z 100316f0 f   KPlayerTask.obj
 0001:00030740       ?Release@KPlayerTeam@@QAEXXZ 10031740 f   KPlayerTeam.obj
 0001:00030770       ?CreateTeam@KPlayerTeam@@QAEHHPAUPLAYER_APPLY_CREATE_TEAM@@@Z 10031770 f   KPlayerTeam.obj
 0001:00030950       ?InviteAdd@KPlayerTeam@@QAEXHPAUTEAM_INVITE_ADD_COMMAND@@@Z 10031950 f   KPlayerTeam.obj
 0001:00030b20       ?GetInviteReply@KPlayerTeam@@QAEXHHH@Z 10031b20 f   KPlayerTeam.obj
 0001:000310c0       ?SetCanTeamFlag@KPlayerTeam@@QAEXHH@Z 100320c0 f   KPlayerTeam.obj
 0001:00031120       ??0KTeam@@QAE@XZ           10032120 f   KPlayerTeam.obj
 0001:00031130       ?Release@KTeam@@QAEXXZ     10032130 f   KPlayerTeam.obj
 0001:00031160       ?SetIndex@KTeam@@QAEXH@Z   10032160 f   KPlayerTeam.obj
 0001:00031170       ?FindFree@KTeam@@QAEHXZ    10032170 f   KPlayerTeam.obj
 0001:00031190       ?FindMemberID@KTeam@@QAEHK@Z 10032190 f   KPlayerTeam.obj
 0001:000311e0       ?CheckFull@KTeam@@QAEHXZ   100321e0 f   KPlayerTeam.obj
 0001:00031200       ?SetTeamOpen@KTeam@@QAEHXZ 10032200 f   KPlayerTeam.obj
 0001:00031280       ?SetTeamClose@KTeam@@QAEHXZ 10032280 f   KPlayerTeam.obj
 0001:000312e0       ?IsOpen@KTeam@@QAEHXZ      100322e0 f   KPlayerTeam.obj
 0001:000312f0       ?CalcCaptainPower@KTeam@@QAEHXZ 100322f0 f   KPlayerTeam.obj
 0001:00031320       ?CheckAddCondition@KTeam@@AAEHH@Z 10032320 f   KPlayerTeam.obj
 0001:000313a0       ?CreateTeam@KTeam@@QAEHH@Z 100323a0 f   KPlayerTeam.obj
 0001:000313c0       ?AddMember@KTeam@@QAEHH@Z  100323c0 f   KPlayerTeam.obj
 0001:00031420       ?DeleteMember@KTeam@@QAEHH@Z 10032420 f   KPlayerTeam.obj
 0001:000317d0       ?CheckIn@KTeam@@QAEHH@Z    100327d0 f   KPlayerTeam.obj
 0001:00031800       ?Init@KTeamSet@@QAEXXZ     10032800 f   KPlayerTeam.obj
 0001:00031820       ?FindFree@KTeamSet@@AAEHXZ 10032820 f   KPlayerTeam.obj
 0001:00031840       ?CreateTeam@KTeamSet@@QAEHH@Z 10032840 f   KPlayerTeam.obj
 0001:00031880       ?Init@KPlayerTong@@QAEXH@Z 10032880 f   KPlayerTong.obj
 0001:00031890       ?Clear@KPlayerTong@@QAEXXZ 10032890 f   KPlayerTong.obj
 0001:000318c0       ?CheckCreateCondition@KPlayerTong@@QAEHHPAD@Z 100328c0 f   KPlayerTong.obj
 0001:00031a60       ?Create@KPlayerTong@@QAEHHPAD@Z 10032a60 f   KPlayerTong.obj
 0001:00031ce0       ?TransferAddApply@KPlayerTong@@QAEHK@Z 10032ce0 f   KPlayerTong.obj
 0001:00031e90       ?CheckAcceptAddApplyCondition@KPlayerTong@@AAEHXZ 10032e90 f   KPlayerTong.obj
 0001:00031eb0       ?SendRefuseMessage@KPlayerTong@@QAEXHK@Z 10032eb0 f   KPlayerTong.obj
 0001:00032080       ?GetTongName@KPlayerTong@@QAEXPAD@Z 10033080 f   KPlayerTong.obj
 0001:000320c0       ?GetTongTitle@KPlayerTong@@QAEXPAD@Z 100330c0 f   KPlayerTong.obj
 0001:00032100       ?CheckAddCondition@KPlayerTong@@QAEHH@Z 10033100 f   KPlayerTong.obj
 0001:000321b0       ?AddTong@KPlayerTong@@QAEHHPAD00F@Z 100331b0 f   KPlayerTong.obj
 0001:00032440       ?GetTongNameID@KPlayerTong@@QAEKXZ 10033440 f   KPlayerTong.obj
 0001:00032450       ?SendSelfInfo@KPlayerTong@@QAEXXZ 10033450 f   KPlayerTong.obj
 0001:00032550       ?CheckInstatePower@KPlayerTong@@QAEHPAUTONG_APPLY_INSTATE_COMMAND@@@Z 10033550 f   KPlayerTong.obj
 0001:00032620       ?CheckChangeNamePower@KPlayerTong@@QAEHPAUTONG_APPLY_CHANGENAME_COMMAND@@@Z 10033620 f   KPlayerTong.obj
 0001:000326c0       ?CheckChangeAllNamePower@KPlayerTong@@QAEHPAUTONG_APPLY_CHANGEALLNAME_COMMAND@@@Z 100336c0 f   KPlayerTong.obj
 0001:00032710       ?CheckSendMoneyPower@KPlayerTong@@QAEHEH@Z 10033710 f   KPlayerTong.obj
 0001:000327d0       ?CheckChangeCampPower@KPlayerTong@@QAEHE@Z 100337d0 f   KPlayerTong.obj
 0001:00032800       ?CheckUpInfoPower@KPlayerTong@@QAEHXZ 10033800 f   KPlayerTong.obj
 0001:00032820       ?CheckKickPower@KPlayerTong@@QAEHPAUTONG_APPLY_KICK_COMMAND@@@Z 10033820 f   KPlayerTong.obj
 0001:00032880       ?BeInstated@KPlayerTong@@QAEXPAUSTONG_SERVER_TO_CORE_BE_INSTATED@@@Z 10033880 f   KPlayerTong.obj
 0001:00032920       ?BeChangeName@KPlayerTong@@QAEXPAUSTONG_SERVER_TO_CORE_BE_CHANGENAME@@@Z 10033920 f   KPlayerTong.obj
 0001:000329b0       ?BeKicked@KPlayerTong@@QAEXPAUSTONG_SERVER_TO_CORE_BE_KICKED@@@Z 100339b0 f   KPlayerTong.obj
 0001:00032b20       ?CheckLeavePower@KPlayerTong@@QAEHPAUTONG_APPLY_LEAVE_COMMAND@@@Z 10033b20 f   KPlayerTong.obj
 0001:00032bc0       ?Leave@KPlayerTong@@QAEXPAUSTONG_SERVER_TO_CORE_LEAVE@@@Z 10033bc0 f   KPlayerTong.obj
 0001:00032dc0       ?CheckChangeMasterPower@KPlayerTong@@QAEHPAUTONG_APPLY_CHANGE_MASTER_COMMAND@@@Z 10033dc0 f   KPlayerTong.obj
 0001:00032e40       ?CheckGetMasterPower@KPlayerTong@@QAEHPAUSTONG_SERVER_TO_CORE_CHECK_GET_MASTER_POWER@@@Z 10033e40 f   KPlayerTong.obj
 0001:00032f30       ?ChangeAs@KPlayerTong@@QAEXPAUSTONG_SERVER_TO_CORE_CHANGE_AS@@@Z 10033f30 f   KPlayerTong.obj
 0001:000330c0       ?ChangeMaster@KPlayerTong@@QAEXPAD@Z 100340c0 f   KPlayerTong.obj
 0001:00033120       ?Login@KPlayerTong@@QAEXPAUSTONG_SERVER_TO_CORE_LOGIN@@@Z 10034120 f   KPlayerTong.obj
 0001:00033380       ?SetCamp@KPlayerTong@@QAEXE@Z 10034380 f   KPlayerTong.obj
 0001:00033450       ??0KTrade@@QAE@XZ          10034450 f   KPlayerTrade.obj
 0001:00033470       ?Release@KTrade@@QAEXXZ    10034470 f   KPlayerTrade.obj
 0001:00033490       ?StartTrade@KTrade@@QAEHHHH@Z 10034490 f   KPlayerTrade.obj
 0001:000334d0       ?LoadRecord@@YAHPAVKTabFile@@HPBUtagPROPINFO@@H@Z 100344d0 f   KBasPropTbl.obj
 0001:00033550       ??0KLibOfBPT@@QAE@XZ       10034550 f   KBasPropTbl.obj
 0001:00033720       ??1KLibOfBPT@@QAE@XZ       10034720 f   KBasPropTbl.obj
 0001:000338f0       ?Init@KLibOfBPT@@QAEHXZ    100348f0 f   KBasPropTbl.obj
 0001:00033a30       ?InitMAIT@KLibOfBPT@@IAEHXZ 10034a30 f   KBasPropTbl.obj
 0001:00033b60       ?InitMALib@KLibOfBPT@@IAEHXZ 10034b60 f   KBasPropTbl.obj
 0001:00033c40       ?GetCMAT@KLibOfBPT@@QBEPBVKBPT_ClassifiedMAT@@HH@Z 10034c40 f   KBasPropTbl.obj
 0001:00033c80       ?GetCMIT@KLibOfBPT@@QBEPBVKBPT_ClassMAIT@@HHHH@Z 10034c80 f   KBasPropTbl.obj
 0001:00033cf0       ?GetMARecord@KLibOfBPT@@QBEPBUKMAGICATTRIB_TABFILE@@H@Z 10034cf0 f   KBasPropTbl.obj
 0001:00033d10       ?GetMARecordNumber@KLibOfBPT@@QBE?BHXZ 10034d10 f   KBasPropTbl.obj
 0001:00033d20       ?GetMeleeWeaponRecord@KLibOfBPT@@QBEPBUKBASICPROP_EQUIPMENT@@H@Z 10034d20 f   KBasPropTbl.obj
 0001:00033d40       ?GetMeleeWeaponRecordNumber@KLibOfBPT@@QBE?BHXZ 10034d40 f   KBasPropTbl.obj
 0001:00033d50       ?GetRangeWeaponRecord@KLibOfBPT@@QBEPBUKBASICPROP_EQUIPMENT@@H@Z 10034d50 f   KBasPropTbl.obj
 0001:00033d70       ?GetRangeWeaponRecordNumber@KLibOfBPT@@QBE?BHXZ 10034d70 f   KBasPropTbl.obj
 0001:00033d80       ?GetArmorRecord@KLibOfBPT@@QBEPBUKBASICPROP_EQUIPMENT@@H@Z 10034d80 f   KBasPropTbl.obj
 0001:00033da0       ?GetArmorRecordNumber@KLibOfBPT@@QBE?BHXZ 10034da0 f   KBasPropTbl.obj
 0001:00033db0       ?GetHelmRecord@KLibOfBPT@@QBEPBUKBASICPROP_EQUIPMENT@@H@Z 10034db0 f   KBasPropTbl.obj
 0001:00033dd0       ?GetHelmRecordNumber@KLibOfBPT@@QBE?BHXZ 10034dd0 f   KBasPropTbl.obj
 0001:00033de0       ?GetBootRecord@KLibOfBPT@@QBEPBUKBASICPROP_EQUIPMENT@@H@Z 10034de0 f   KBasPropTbl.obj
 0001:00033e00       ?GetBootRecordNumber@KLibOfBPT@@QBE?BHXZ 10034e00 f   KBasPropTbl.obj
 0001:00033e10       ?GetBeltRecord@KLibOfBPT@@QBEPBUKBASICPROP_EQUIPMENT@@H@Z 10034e10 f   KBasPropTbl.obj
 0001:00033e30       ?GetBeltRecordNumber@KLibOfBPT@@QBE?BHXZ 10034e30 f   KBasPropTbl.obj
 0001:00033e40       ?GetAmuletRecord@KLibOfBPT@@QBEPBUKBASICPROP_EQUIPMENT@@H@Z 10034e40 f   KBasPropTbl.obj
 0001:00033e60       ?GetAmuletRecordNumber@KLibOfBPT@@QBE?BHXZ 10034e60 f   KBasPropTbl.obj
 0001:00033e70       ?GetRingRecord@KLibOfBPT@@QBEPBUKBASICPROP_EQUIPMENT@@H@Z 10034e70 f   KBasPropTbl.obj
 0001:00033e90       ?GetRingRecordNumber@KLibOfBPT@@QBE?BHXZ 10034e90 f   KBasPropTbl.obj
 0001:00033ea0       ?GetCuffRecord@KLibOfBPT@@QBEPBUKBASICPROP_EQUIPMENT@@H@Z 10034ea0 f   KBasPropTbl.obj
 0001:00033ec0       ?GetCuffRecordNumber@KLibOfBPT@@QBE?BHXZ 10034ec0 f   KBasPropTbl.obj
 0001:00033ed0       ?GetPendantRecord@KLibOfBPT@@QBEPBUKBASICPROP_EQUIPMENT@@H@Z 10034ed0 f   KBasPropTbl.obj
 0001:00033ef0       ?GetPendantRecordNumber@KLibOfBPT@@QBE?BHXZ 10034ef0 f   KBasPropTbl.obj
 0001:00033f00       ?GetHorseRecord@KLibOfBPT@@QBEPBUKBASICPROP_EQUIPMENT@@H@Z 10034f00 f   KBasPropTbl.obj
 0001:00033f20       ?GetHorseRecordNumber@KLibOfBPT@@QBE?BHXZ 10034f20 f   KBasPropTbl.obj
 0001:00033f30       ?GetMaskRecord@KLibOfBPT@@QBEPBUKBASICPROP_EQUIPMENT@@H@Z 10034f30 f   KBasPropTbl.obj
 0001:00033f50       ?GetMaskRecordNumber@KLibOfBPT@@QBE?BHXZ 10034f50 f   KBasPropTbl.obj
 0001:00033f60       ?GetGownRecord@KLibOfBPT@@QBEPBUKBASICPROP_EQUIPMENT@@H@Z 10034f60 f   KBasPropTbl.obj
 0001:00033f80       ?GetGownRecordNumber@KLibOfBPT@@QBE?BHXZ 10034f80 f   KBasPropTbl.obj
 0001:00033f90       ?GetSignetRecord@KLibOfBPT@@QBEPBUKBASICPROP_EQUIPMENT@@H@Z 10034f90 f   KBasPropTbl.obj
 0001:00033fb0       ?GetSignetRecordNumber@KLibOfBPT@@QBE?BHXZ 10034fb0 f   KBasPropTbl.obj
 0001:00033fc0       ?GetJewelryRecord@KLibOfBPT@@QBEPBUKBASICPROP_EQUIPMENT@@H@Z 10034fc0 f   KBasPropTbl.obj
 0001:00033fe0       ?GetJewelryRecordNumber@KLibOfBPT@@QBE?BHXZ 10034fe0 f   KBasPropTbl.obj
 0001:00033ff0       ?GetNewGoldRecord@KLibOfBPT@@QBEPBUKBASICPROP_EQUIPMENT_GOLD@@H@Z 10034ff0 f   KBasPropTbl.obj
 0001:00034010       ?GetNewGoldRecordNumber@KLibOfBPT@@QBE?BHXZ 10035010 f   KBasPropTbl.obj
 0001:00034020       ?GetMedicineRecord@KLibOfBPT@@QBEPBUKBASICPROP_MEDICINE@@H@Z 10035020 f   KBasPropTbl.obj
 0001:00034030       ?GetMedicineRecordNumber@KLibOfBPT@@QBE?BHXZ 10035030 f   KBasPropTbl.obj
 0001:00034040       ?GetQuestRecord@KLibOfBPT@@QBEPBUKBASICPROP_QUEST@@H@Z 10035040 f   KBasPropTbl.obj
 0001:00034060       ?GetQuestRecordNumber@KLibOfBPT@@QBE?BHXZ 10035060 f   KBasPropTbl.obj
 0001:00034070       ?GetUsingRecord@KLibOfBPT@@QBEPBUKBASICPROP_QUEST@@H@Z 10035070 f   KBasPropTbl.obj
 0001:00034090       ?GetUsingRecordNumber@KLibOfBPT@@QBE?BHXZ 10035090 f   KBasPropTbl.obj
 0001:000340a0       ?GetMatRecord@KLibOfBPT@@QBEPBUKBASICPROP_QUEST@@H@Z 100350a0 f   KBasPropTbl.obj
 0001:000340c0       ?GetMatRecordNumber@KLibOfBPT@@QBE?BHXZ 100350c0 f   KBasPropTbl.obj
 0001:000340d0       ?GetEventRecord@KLibOfBPT@@QBEPBUKBASICPROP_QUEST@@H@Z 100350d0 f   KBasPropTbl.obj
 0001:000340f0       ?GetEventRecordNumber@KLibOfBPT@@QBE?BHXZ 100350f0 f   KBasPropTbl.obj
 0001:00034100       ?FindMedicine@KLibOfBPT@@QBEPBUKBASICPROP_MEDICINE@@HH@Z 10035100 f   KBasPropTbl.obj
 0001:00034110       ??0KBasicPropertyTable@@QAE@XZ 10035110 f   KBasPropTbl.obj
 0001:00034130       ??1KBasicPropertyTable@@QAE@XZ 10035130 f   KBasPropTbl.obj
 0001:00034140       ?SetCount@KBasicPropertyTable@@IAEXH@Z 10035140 f   KBasPropTbl.obj
 0001:00034150       ?GetMemory@KBasicPropertyTable@@IAEHXZ 10035150 f   KBasPropTbl.obj
 0001:00034180       ?ReleaseMemory@KBasicPropertyTable@@IAEXXZ 10035180 f   KBasPropTbl.obj
 0001:000341b0       ?Load@KBasicPropertyTable@@UAEHXZ 100351b0 f   KBasPropTbl.obj
 0001:000342a0       ??0KBPT_Quest@@QAE@XZ      100352a0 f   KBasPropTbl.obj
 0001:000342f0       ??1KBPT_Quest@@QAE@XZ      100352f0 f   KBasPropTbl.obj
 0001:00034300       ?LoadRecord@KBPT_Quest@@MAEHHPAVKTabFile@@@Z 10035300 f   KBasPropTbl.obj
 0001:00034450       ?GetRecord@KBPT_Quest@@QBEPBUKBASICPROP_QUEST@@H@Z 10035450 f   KBasPropTbl.obj
 0001:00034480       ?FindRecord@KBPT_Quest@@QBEPBUKBASICPROP_QUEST@@H@Z 10035480 f   KBasPropTbl.obj
 0001:000344c0       ??0KBPT_Using@@QAE@XZ      100354c0 f   KBasPropTbl.obj
 0001:00034510       ??1KBPT_Using@@QAE@XZ      10035510 f   KBasPropTbl.obj
 0001:00034520       ?LoadRecord@KBPT_Using@@MAEHHPAVKTabFile@@@Z 10035520 f   KBasPropTbl.obj
 0001:00034670       ?GetRecord@KBPT_Using@@QBEPBUKBASICPROP_QUEST@@H@Z 10035670 f   KBasPropTbl.obj
 0001:000346a0       ?FindRecord@KBPT_Using@@QBEPBUKBASICPROP_QUEST@@H@Z 100356a0 f   KBasPropTbl.obj
 0001:000346e0       ??0KBPT_Mat@@QAE@XZ        100356e0 f   KBasPropTbl.obj
 0001:00034730       ??1KBPT_Mat@@QAE@XZ        10035730 f   KBasPropTbl.obj
 0001:00034740       ?LoadRecord@KBPT_Mat@@MAEHHPAVKTabFile@@@Z 10035740 f   KBasPropTbl.obj
 0001:00034890       ?GetRecord@KBPT_Mat@@QBEPBUKBASICPROP_QUEST@@H@Z 10035890 f   KBasPropTbl.obj
 0001:000348c0       ?FindRecord@KBPT_Mat@@QBEPBUKBASICPROP_QUEST@@H@Z 100358c0 f   KBasPropTbl.obj
 0001:00034900       ??0KBPT_Event@@QAE@XZ      10035900 f   KBasPropTbl.obj
 0001:00034950       ??1KBPT_Event@@QAE@XZ      10035950 f   KBasPropTbl.obj
 0001:00034960       ?LoadRecord@KBPT_Event@@MAEHHPAVKTabFile@@@Z 10035960 f   KBasPropTbl.obj
 0001:00034ab0       ?GetRecord@KBPT_Event@@QBEPBUKBASICPROP_QUEST@@H@Z 10035ab0 f   KBasPropTbl.obj
 0001:00034ae0       ?FindRecord@KBPT_Event@@QBEPBUKBASICPROP_QUEST@@H@Z 10035ae0 f   KBasPropTbl.obj
 0001:00034b20       ??0KBPT_Medicine@@QAE@XZ   10035b20 f   KBasPropTbl.obj
 0001:00034b70       ??1KBPT_Medicine@@QAE@XZ   10035b70 f   KBasPropTbl.obj
 0001:00034b80       ?LoadRecord@KBPT_Medicine@@MAEHHPAVKTabFile@@@Z 10035b80 f   KBasPropTbl.obj
 0001:00034da0       ?GetRecord@KBPT_Medicine@@QBEPBUKBASICPROP_MEDICINE@@H@Z 10035da0 f   KBasPropTbl.obj
 0001:00034dd0       ?FindRecord@KBPT_Medicine@@QBEPBUKBASICPROP_MEDICINE@@HH@Z 10035dd0 f   KBasPropTbl.obj
 0001:00034e10       ??0KBPT_Equipment@@QAE@XZ  10035e10 f   KBasPropTbl.obj
 0001:00034e30       ??1KBPT_Equipment@@QAE@XZ  10035e30 f   KBasPropTbl.obj
 0001:00034e40       ?Init@KBPT_Equipment@@QAEXH@Z 10035e40 f   KBasPropTbl.obj
 0001:00034e80       ?LoadRecord@KBPT_Equipment@@MAEHHPAVKTabFile@@@Z 10035e80 f   KBasPropTbl.obj
 0001:00035350       ?GetRecord@KBPT_Equipment@@QBEPBUKBASICPROP_EQUIPMENT@@H@Z 10036350 f   KBasPropTbl.obj
 0001:00035380       ?FindRecord@KBPT_Equipment@@QBEPBUKBASICPROP_EQUIPMENT@@HHH@Z 10036380 f   KBasPropTbl.obj
 0001:000353d0       ??0KBPT_Equipment_Gold@@QAE@XZ 100363d0 f   KBasPropTbl.obj
 0001:000353f0       ??1KBPT_Equipment_Gold@@QAE@XZ 100363f0 f   KBasPropTbl.obj
 0001:00035400       ?Init@KBPT_Equipment_Gold@@QAEXH@Z 10036400 f   KBasPropTbl.obj
 0001:00035430       ?LoadRecord@KBPT_Equipment_Gold@@MAEHHPAVKTabFile@@@Z 10036430 f   KBasPropTbl.obj
 0001:00035a20       ?GetRecord@KBPT_Equipment_Gold@@QBEPBUKBASICPROP_EQUIPMENT_GOLD@@H@Z 10036a20 f   KBasPropTbl.obj
 0001:00035a50       ??0KBPT_MagicAttrib_TF@@QAE@XZ 10036a50 f   KBasPropTbl.obj
 0001:00035ab0       ??1KBPT_MagicAttrib_TF@@QAE@XZ 10036ab0 f   KBasPropTbl.obj
 0001:00035ac0       ?LoadRecord@KBPT_MagicAttrib_TF@@MAEHHPAVKTabFile@@@Z 10036ac0 f   KBasPropTbl.obj
 0001:00035d70       ?GetRecord@KBPT_MagicAttrib_TF@@QBEPBUKMAGICATTRIB_TABFILE@@H@Z 10036d70 f   KBasPropTbl.obj
 0001:00035da0       ?GetMACount@KBPT_MagicAttrib_TF@@QBEXPAH@Z 10036da0 f   KBasPropTbl.obj
 0001:00035dc0       ??0KBPT_ClassMAIT@@QAE@XZ  10036dc0 f   KBasPropTbl.obj
 0001:00035dd0       ??1KBPT_ClassMAIT@@QAE@XZ  10036dd0 f   KBasPropTbl.obj
 0001:00035e00       ?Clear@KBPT_ClassMAIT@@QAEHXZ 10036e00 f   KBasPropTbl.obj
 0001:00035e10       ?Get@KBPT_ClassMAIT@@QBEHH@Z 10036e10 f   KBasPropTbl.obj
 0001:00035e20       ?Insert@KBPT_ClassMAIT@@QAEHH@Z 10036e20 f   KBasPropTbl.obj
 0001:00035ec0       ??0KBPT_ClassifiedMAT@@QAE@XZ 10036ec0 f   KBasPropTbl.obj
 0001:00035ed0       ??1KBPT_ClassifiedMAT@@QAE@XZ 10036ed0 f   KBasPropTbl.obj
 0001:00035ee0       ?GetMemory@KBPT_ClassifiedMAT@@QAEHH@Z 10036ee0 f   KBasPropTbl.obj
 0001:00035f20       ?ReleaseMemory@KBPT_ClassifiedMAT@@IAEXXZ 10036f20 f   KBasPropTbl.obj
 0001:00035f50       ?Set@KBPT_ClassifiedMAT@@QAEHH@Z 10036f50 f   KBasPropTbl.obj
 0001:00035f70       ?Get@KBPT_ClassifiedMAT@@QBEHH@Z 10036f70 f   KBasPropTbl.obj
 0001:00035f90       ?GetAll@KBPT_ClassifiedMAT@@QBEHPAH0@Z 10036f90 f   KBasPropTbl.obj
 0001:00036010       ??0KBuySell@@QAE@XZ        10037010 f   KBuySell.obj
 0001:00036030       ??1KBuySell@@QAE@XZ        10037030 f   KBuySell.obj
 0001:000360c0       ??_EKItem@@QAEPAXI@Z       100370c0 f i KBuySell.obj
 0001:00036120       ?Init@KBuySell@@QAEHXZ     10037120 f   KBuySell.obj
 0001:00036630       ?GetItem@KBuySell@@QAEPAVKItem@@H@Z 10037630 f   KBuySell.obj
 0001:00036660       ?GetItemIndex@KBuySell@@QAEHHH@Z 10037660 f   KBuySell.obj
 0001:000366a0       ?Buy@KBuySell@@QAEHHHHHHH@Z 100376a0 f   KBuySell.obj
 0001:00036a50       ?Sell@KBuySell@@QAEHHHH@Z  10037a50 f   KBuySell.obj
 0001:00036b90       ?OpenSale@KBuySell@@QAEXHHH@Z 10037b90 f   KBuySell.obj
 0001:00036cb0       ??0KenSuperShop@@QAE@XZ    10037cb0 f   KenSuperShop.obj
 0001:00036cc0       ??1KenSuperShop@@QAE@XZ    10037cc0 f   KenSuperShop.obj
 0001:00036cf0       ?Init@KenSuperShop@@QAEHXZ 10037cf0 f   KenSuperShop.obj
 0001:00036fc0       ?GetItemIndex@KenSuperShop@@QAEHH@Z 10037fc0 f   KenSuperShop.obj
 0001:00036ff0       ?GetItemPrice@KenSuperShop@@QAEHH@Z 10037ff0 f   KenSuperShop.obj
 0001:00037020       ?GetItemDate@KenSuperShop@@QAEIH@Z 10038020 f   KenSuperShop.obj
 0001:00037050       ?SearchId@KenSuperShop@@QAEHH@Z 10038050 f   KenSuperShop.obj
 0001:00037080       ?IsEndDate@KenSuperShop@@QAEHH@Z 10038080 f   KenSuperShop.obj
 0001:000370b0       ?GetCount@KenSuperShop@@QAEHXZ 100380b0 f   KenSuperShop.obj
 0001:000370c0       ?Buy@KenSuperShop@@QAEHHHH@Z 100380c0 f   KenSuperShop.obj
 0001:000372b0       ??0KInventory@@QAE@XZ      100382b0 f   KInventory.obj
 0001:000372c0       ??1KInventory@@QAE@XZ      100382c0 f   KInventory.obj
 0001:000372d0       ?Init@KInventory@@QAEHHH@Z 100382d0 f   KInventory.obj
 0001:00037340       ?Release@KInventory@@QAEXXZ 10038340 f   KInventory.obj
 0001:00037370       ?Clear@KInventory@@QAEXXZ  10038370 f   KInventory.obj
 0001:000373b0       ?PlaceItem@KInventory@@QAEHHHHHH@Z 100383b0 f   KInventory.obj
 0001:000374b0       ?HoldItem@KInventory@@QAEHHHH@Z 100384b0 f   KInventory.obj
 0001:00037520       ?PickUpItem@KInventory@@QAEHHHHHH@Z 10038520 f   KInventory.obj
 0001:00037610       ?FindItem@KInventory@@QAEHHH@Z 10038610 f   KInventory.obj
 0001:00037680       ?FindRoom@KInventory@@QAEHHHPAUtagPOINT@@@Z 10038680 f   KInventory.obj
 0001:00037720       ?CheckRoom@KInventory@@QAEHHHHH@Z 10038720 f   KInventory.obj
 0001:000377d0       ?AddMoney@KInventory@@QAEHH@Z 100387d0 f   KInventory.obj
 0001:00037820       ?GetNextItem@KInventory@@QAEHHHHPAH0@Z 10038820 f   KInventory.obj
 0001:000378d0       ?CalcSameDetailType@KInventory@@QAEHHH@Z 100388d0 f   KInventory.obj
 0001:00037980       ?FindEmptyPlace@KInventory@@QAEHHHPAUtagPOINT@@@Z 10038980 f   KInventory.obj
 0001:00037ae0       ?FindSameDetailType@KInventory@@QAEHHHPAH00@Z 10038ae0 f   KInventory.obj
 0001:00037b80       ?CheckSameDetailType@KInventory@@QAEHHH@Z 10038b80 f   KInventory.obj
 0001:00037c50       ??0KItem@@QAE@XZ           10038c50 f   KItem.obj
 0001:00037d70       ??1KItem@@QAE@XZ           10038d70 f   KItem.obj
 0001:00037d80       ?GetRequirement@KItem@@QAEPAXH@Z 10038d80 f   KItem.obj
 0001:00037da0       ?ApplyMagicAttribToNPC@KItem@@QBEXPAVKNpc@@H@Z 10038da0 f   KItem.obj
 0001:00037e20       ?ApplyExpandAttribToNPC@KItem@@QBEXPAVKNpc@@@Z 10038e20 f   KItem.obj
 0001:00037e50       ?RemoveMagicAttribFromNPC@KItem@@QBEXPAVKNpc@@H@Z 10038e50 f   KItem.obj
 0001:00037f60       ?RemoveExpandAttribFromNPC@KItem@@QBEXPAVKNpc@@@Z 10038f60 f   KItem.obj
 0001:00037fc0       ?ApplyHiddenMagicAttribToNPC@KItem@@QBEXPAVKNpc@@H@Z 10038fc0 f   KItem.obj
 0001:00037ff0       ?RemoveHiddenMagicAttribFromNPC@KItem@@QBEXPAVKNpc@@H@Z 10038ff0 f   KItem.obj
 0001:00038050       ?SetAttrib_CBR@KItem@@AAEHPBUKBASICPROP_EQUIPMENT@@@Z 10039050 f   KItem.obj
 0001:00038090       ?SetAttrib_Def@KItem@@AAEHPBH0I@Z 10039090 f   KItem.obj
 0001:00038330       ?SetAttrib_Base@KItem@@AAEHPBUKEQCP_BASIC@@@Z 10039330 f   KItem.obj
 0001:000383c0       ?SetAttrib_Req@KItem@@AAEHPBUKEQCP_REQ@@@Z 100393c0 f   KItem.obj
 0001:00038400       ?SetAttrib_MA@KItem@@AAEHPBUKMagicAttrib@@@Z 10039400 f   KItem.obj
 0001:00038460       ?SetAttrib_MA@KItem@@AAEHPBUKMACP@@@Z 10039460 f   KItem.obj
 0001:000384e0       ??4KItem@@AAEXABUKBASICPROP_EQUIPMENT@@@Z 100394e0 f   KItem.obj
 0001:00038580       ??4KItem@@AAEXABUKBASICPROP_QUEST@@@Z 10039580 f   KItem.obj
 0001:00038670       ??4KItem@@AAEXABUKBASICPROP_MEDICINE@@@Z 10039670 f   KItem.obj
 0001:000387a0       ?Remove@KItem@@QAEXXZ      100397a0 f   KItem.obj
 0001:00038850       ?SetBaseAttrib@KItem@@QAEHPBUKMagicAttrib@@@Z 10039850 f   KItem.obj
 0001:000388a0       ?SetRequireAttrib@KItem@@QAEHPBUKMagicAttrib@@@Z 100398a0 f   KItem.obj
 0001:000388f0       ?SetMagicAttrib@KItem@@QAEHPBUKMagicAttrib@@@Z 100398f0 f   KItem.obj
 0001:00038900       ?Abrade@KItem@@QAEHH@Z     10039900 f   KItem.obj
 0001:000389c0       ?GetMaxDurability@KItem@@QAEHXZ 100399c0 f   KItem.obj
 0001:000389e0       ?GetTotalMagicLevel@KItem@@QAEHXZ 100399e0 f   KItem.obj
 0001:00038a10       ?GetTotalMagicNumber@KItem@@QAEHXZ 10039a10 f   KItem.obj
 0001:00038a40       ?GetRepairPrice@KItem@@QAEHXZ 10039a40 f   KItem.obj
 0001:00038b10       ?CanBeRepaired@KItem@@QAEHXZ 10039b10 f   KItem.obj
 0001:00038b50       ?CanStack@KItem@@QAEHH@Z   10039b50 f   KItem.obj
 0001:00038c10       ?SetCount@KItem@@QAEXH@Z   10039c10 f   KItem.obj
 0001:00038c30       ?SetPriced@KItem@@QAEXH@Z  10039c30 f   KItem.obj
 0001:00038cc0       ??1KItemChangeRes@@QAE@XZ  10039cc0 f i KItemChangeRes.obj
 0001:00038d40       ??0KItemChangeRes@@QAE@XZ  10039d40 f i KItemChangeRes.obj
 0001:00038dc0       ?Init@KItemChangeRes@@QAEHXZ 10039dc0 f   KItemChangeRes.obj
 0001:00038e40       ?GetWeaponRes@KItemChangeRes@@QAEHHHH@Z 10039e40 f   KItemChangeRes.obj
 0001:00038ec0       ?GetGoldRes@KItemChangeRes@@QAEHH@Z 10039ec0 f   KItemChangeRes.obj
 0001:00038f00       ?GetArmorRes@KItemChangeRes@@QAEHHH@Z 10039f00 f   KItemChangeRes.obj
 0001:00038f50       ?GetHelmRes@KItemChangeRes@@QAEHHH@Z 10039f50 f   KItemChangeRes.obj
 0001:00038fa0       ?GetHorseRes@KItemChangeRes@@QAEHHH@Z 10039fa0 f   KItemChangeRes.obj
 0001:00039020       ??0KItemGenerator@@QAE@XZ  1003a020 f   KItemGenerator.obj
 0001:00039030       ??1KItemGenerator@@QAE@XZ  1003a030 f   KItemGenerator.obj
 0001:00039040       ?Init@KItemGenerator@@QAEHXZ 1003a040 f   KItemGenerator.obj
 0001:000391b0       ?Gen_Medicine@KItemGenerator@@QAEHHHHPAVKItem@@@Z 1003a1b0 f   KItemGenerator.obj
 0001:000391e0       ?GetEquipmentGoldProp@KItemGenerator@@QAEPBUKBASICPROP_EQUIPMENT_GOLD@@H@Z 1003a1e0 f   KItemGenerator.obj
 0001:000391f0       ?Gen_Equipment@KItemGenerator@@QAEHHHHHHPBHHPAVKItem@@0@Z 1003a1f0 f   KItemGenerator.obj
 0001:000394c0       ?Gen_MagicAttrib@KItemGenerator@@AAEHHPBHHHPAUKMagicAttrib@@H@Z 1003a4c0 f   KItemGenerator.obj
 0001:00039770       ?GMA_GetAvaliableMA@KItemGenerator@@AAEHH@Z 1003a770 f   KItemGenerator.obj
 0001:000397d0       ?GMA_GetLevelAndDropRate@KItemGenerator@@AAEHH@Z 1003a7d0 f   KItemGenerator.obj
 0001:00039880       ?GMA_ChooseMA@KItemGenerator@@AAEXHHHPAUKMagicAttrib@@@Z 1003a880 f   KItemGenerator.obj
 0001:00039970       ?GetMARecord@KItemGenerator@@ABEPBUKMAGICATTRIB_TABFILE@@H@Z 1003a970 f   KItemGenerator.obj
 0001:00039980       ?GMA_GetCandidateMA@KItemGenerator@@AAEHHHH@Z 1003a980 f   KItemGenerator.obj
 0001:00039a20       ?GetMedicineCommonAttrib@KItemGenerator@@QAEHHHPAVKItem@@@Z 1003aa20 f   KItemGenerator.obj
 0001:00039a60       ?GetEquipmentCommonAttrib@KItemGenerator@@QAEHHHHHPAVKItem@@@Z 1003aa60 f   KItemGenerator.obj
 0001:00039b80       ?Gen_ExistEquipment@KItemGenerator@@QAEHHHHHHPBHHPAVKItem@@0@Z 1003ab80 f   KItemGenerator.obj
 0001:00039f70       ?Gen_Quest@KItemGenerator@@QAEHHHHHPAVKItem@@@Z 1003af70 f   KItemGenerator.obj
 0001:00039fa0       ?Gen_UsingItem@KItemGenerator@@QAEHHHHHPAVKItem@@@Z 1003afa0 f   KItemGenerator.obj
 0001:0003a010       ?Gen_Material@KItemGenerator@@QAEHHHHHPBHPAVKItem@@@Z 1003b010 f   KItemGenerator.obj
 0001:0003a090       ?Gen_EventItem@KItemGenerator@@QAEHHHHHPAVKItem@@@Z 1003b090 f   KItemGenerator.obj
 0001:0003a100       ??0KItemList@@QAE@XZ       1003b100 f   KItemList.obj
 0001:0003a180       ??1KItemList@@QAE@XZ       1003b180 f   KItemList.obj
 0001:0003a1f0       ?GetWeaponType@KItemList@@QAEHXZ 1003b1f0 f   KItemList.obj
 0001:0003a210       ?GetWeaponDamage@KItemList@@QAEXPAH0@Z 1003b210 f   KItemList.obj
 0001:0003a330       ?Add@KItemList@@QAEHHHHH@Z 1003b330 f   KItemList.obj
 0001:0003a9f0       ?Remove@KItemList@@QAEHH@Z 1003b9f0 f   KItemList.obj
 0001:0003ad40       ?FindFree@KItemList@@AAEHXZ 1003bd40 f   KItemList.obj
 0001:0003ad60       ?FindSame@KItemList@@AAEHH@Z 1003bd60 f   KItemList.obj
 0001:0003ada0       ?Init@KItemList@@QAEHH@Z   1003bda0 f   KItemList.obj
 0001:0003aea0       ?CanEquip@KItemList@@QAEHHH@Z 1003bea0 f   KItemList.obj
 0001:0003af30       ?CanEquip@KItemList@@QAEHPAVKItem@@H@Z 1003bf30 f   KItemList.obj
 0001:0003af90       ?EnoughAttrib@KItemList@@QAEHPAX@Z 1003bf90 f   KItemList.obj
 0001:0003b1a0       ?Equip@KItemList@@QAEHHH@Z 1003c1a0 f   KItemList.obj
 0001:0003b540       ?InfectionNextEquip@KItemList@@AAEXHH@Z 1003c540 f   KItemList.obj
 0001:0003b660       ?UnEquip@KItemList@@QAEHHH@Z 1003c660 f   KItemList.obj
 0001:0003b8a0       ?GetGroupOfPlace@KItemList@@QAEHH@Z 1003c8a0 f   KItemList.obj
 0001:0003b8d0       ?GetEquipPlace@KItemList@@QAEHH@Z 1003c8d0 f   KItemList.obj
 0001:0003b990       ?Fit@KItemList@@AAEHHH@Z   1003c990 f   KItemList.obj
 0001:0003bae0       ?Fit@KItemList@@AAEHPAVKItem@@H@Z 1003cae0 f   KItemList.obj
 0001:0003bc30       ?GetEquipEnhance@KItemList@@AAEHH@Z 1003cc30 f   KItemList.obj
 0001:0003bd40       ?EatMecidine@KItemList@@QAEHH@Z 1003cd40 f   KItemList.obj
 0001:0003bf20       ?SearchID@KItemList@@QAEHH@Z 1003cf20 f   KItemList.obj
 0001:0003bf70       ?ExchangeMoney@KItemList@@QAEXHHH@Z 1003cf70 f   KItemList.obj
 0001:0003c060       ?GetEquipmentMoney@KItemList@@QAEHXZ 1003d060 f   KItemList.obj
 0001:0003c070       ?AddMoney@KItemList@@QAEHHH@Z 1003d070 f   KItemList.obj
 0001:0003c0b0       ?CostMoney@KItemList@@QAEHH@Z 1003d0b0 f   KItemList.obj
 0001:0003c0f0       ?SendMoneySync@KItemList@@QAEXXZ 1003d0f0 f   KItemList.obj
 0001:0003c190       ?SetMoney@KItemList@@QAEXHHH@Z 1003d190 f   KItemList.obj
 0001:0003c1c0       ?SetRoomMoney@KItemList@@QAEXHH@Z 1003d1c0 f   KItemList.obj
 0001:0003c1f0       ?ExchangeItem@KItemList@@QAEXPAUItemPos@@0@Z 1003d1f0 f   KItemList.obj
 0001:0003e8d0       ?EatMecidine@KItemList@@QAEHHHH@Z 1003f8d0 f   KItemList.obj
 0001:0003e9d0       ?GetFirstItem@KItemList@@QAEPAUPlayerItem@@XZ 1003f9d0 f   KItemList.obj
 0001:0003ea00       ?GetNextItem@KItemList@@QAEPAUPlayerItem@@XZ 1003fa00 f   KItemList.obj
 0001:0003ea40       ?ClearRoom@KItemList@@QAEXH@Z 1003fa40 f   KItemList.obj
 0001:0003ea60       ?RemoveAll@KItemList@@QAEXXZ 1003fa60 f   KItemList.obj
 0001:0003eab0       ?GetWeaponParticular@KItemList@@QAEHXZ 1003fab0 f   KItemList.obj
 0001:0003ead0       ?GetItemCount@KItemList@@QAEHHF@Z 1003fad0 f   KItemList.obj
 0001:0003eb50       ?Room2Pos@KItemList@@QAEHH@Z 1003fb50 f   KItemList.obj
 0001:0003ebc0       ?Pos2Room@KItemList@@QAEHH@Z 1003fbc0 f   KItemList.obj
 0001:0003ec30       ?GetEquipRichValue@KItemList@@QAEHXZ 1003fc30 f   KItemList.obj
 0001:0003ec60       ?RemoveTaskItem@KItemList@@QAEHHHHH@Z 1003fc60 f   KItemList.obj
 0001:0003edc0       ?GetTradeRoomItemInfo@KItemList@@QAEXPAUTRADE_ITEM_INFO@@@Z 1003fdc0 f   KItemList.obj
 0001:0003eeb0       ?TradeCheckCanPlace@KItemList@@QAEHPAUTRADE_ITEM_INFO@@@Z 1003feb0 f   KItemList.obj
 0001:0003f050       ?RemoveAllItemInRoom@KItemList@@QAEXH@Z 10040050 f   KItemList.obj
 0001:0003f0d0       ?CheckCanPlaceInEquipment@KItemList@@QAEHHHPAH0H@Z 100400d0 f   KItemList.obj
 0001:0003f200       ?CheckCanPlaceInEquipment2@KItemList@@QAEHHHPAH0H@Z 10040200 f   KItemList.obj
 0001:0003f340       ?FindSameDetailTypeInEquipment@KItemList@@AAEHHHPAH00@Z 10040340 f   KItemList.obj
 0001:0003f370       ?AutoMoveMedicine@KItemList@@QAEHHHHHHHH@Z 10040370 f   KItemList.obj
 0001:0003f660       ?GetItem@KItemList@@QAEPAUPlayerItem@@H@Z 10040660 f   KItemList.obj
 0001:0003f690       ?GetActiveAttribNum@KItemList@@QAEHH@Z 10040690 f   KItemList.obj
 0001:0003f6c0       ?GetConditionGroup@KItemList@@QAEHXZ 100406c0 f   KItemList.obj
 0001:0003f820       ?AutoLoseItemFromEquipmentRoom@KItemList@@QAEXH@Z 10040820 f   KItemList.obj
 0001:0003fb10       ?AutoLoseEquip@KItemList@@QAEXH@Z 10040b10 f   KItemList.obj
 0001:0003fd50       ?Abrade@KItemList@@QAEXH@Z 10040d50 f   KItemList.obj
 0001:00040110       ??0KItemSet@@QAE@XZ        10041110 f   KItemSet.obj
 0001:00040140       ??1KItemSet@@QAE@XZ        10041140 f   KItemSet.obj
 0001:00040190       ?Init@KItemSet@@QAEXXZ     10041190 f   KItemSet.obj
 0001:00040380       ?SearchID@KItemSet@@QAEHK@Z 10041380 f   KItemSet.obj
 0001:000403b0       ?Add@KItemSet@@QAEHPAVKItem@@@Z 100413b0 f   KItemSet.obj
 0001:00040410       ?Add@KItemSet@@QAEHHHHHHHPAHH0@Z 10041410 f   KItemSet.obj
 0001:00040570       ?FindFree@KItemSet@@AAEHXZ 10041570 f   KItemSet.obj
 0001:00040580       ?Remove@KItemSet@@QAEXH@Z  10041580 f   KItemSet.obj
 0001:000405d0       ?SetID@KItemSet@@AAEXH@Z   100415d0 f   KItemSet.obj
 0001:000405f0       ?GetAbradeRange@KItemSet@@QAEHHH@Z 100415f0 f   KItemSet.obj
 0001:00040650       ??0KObj@@QAE@XZ            10041650 f   KObj.obj
 0001:000406a0       ?Release@KObj@@QAEXXZ      100416a0 f   KObj.obj
 0001:00040780       ?SetIndex@KObj@@QAEXH@Z    10041780 f   KObj.obj
 0001:000407a0       ?SetWorldID@KObj@@QAEXH@Z  100417a0 f   KObj.obj
 0001:000407c0       ?SetLifeTime@KObj@@QAEXH@Z 100417c0 f   KObj.obj
 0001:000407d0       ?SetState@KObj@@QAEXHH@Z   100417d0 f   KObj.obj
 0001:00040870       ?BoxOpen@KObj@@AAEXXZ      10041870 f   KObj.obj
 0001:00040880       ?BoxClose@KObj@@AAEXXZ     10041880 f   KObj.obj
 0001:00040890       ?DoorOpen@KObj@@AAEXXZ     10041890 f   KObj.obj
 0001:000408a0       ?DoorClose@KObj@@AAEXXZ    100418a0 f   KObj.obj
 0001:000408b0       ?SetDir@KObj@@QAEHH@Z      100418b0 f   KObj.obj
 0001:000408f0       ?SetScriptFile@KObj@@QAEXPAD@Z 100418f0 f   KObj.obj
 0001:00040970       ?SetImageDir@KObj@@QAEXH@Z 10041970 f   KObj.obj
 0001:000409a0       ?SetItemDataID@KObj@@QAEXH@Z 100419a0 f   KObj.obj
 0001:000409c0       ?Activate@KObj@@QAEXXZ     100419c0 f   KObj.obj
 0001:00040ac0       ?ExecScript@KObj@@QAEXH@Z  10041ac0 f   KObj.obj
 0001:00040c70       ?CastSkill@KObj@@QAEXH@Z   10041c70 f   KObj.obj
 0001:00040c80       ?CastSkill@KObj@@QAEXHH@Z  10041c80 f   KObj.obj
 0001:00040c90       ?SyncAdd@KObj@@QAEHH@Z     10041c90 f   KObj.obj
 0001:00040e10       ?SyncState@KObj@@QAEXXZ    10041e10 f   KObj.obj
 0001:00040f50       ?SyncDir@KObj@@QAEXXZ      10041f50 f   KObj.obj
 0001:00041090       ?SyncRemove@KObj@@QAEXH@Z  10042090 f   KObj.obj
 0001:000411e0       ?TrapAct@KObj@@QAEXXZ      100421e0 f   KObj.obj
 0001:00041340       ?FindEnemy@KObj@@QAEHXZ    10042340 f   KObj.obj
 0001:00041350       ?GetItemDataID@KObj@@QAEHXZ 10042350 f   KObj.obj
 0001:00041360       ?SetItemBelong@KObj@@QAEXH@Z 10042360 f   KObj.obj
 0001:00041390       ?SetEntireBelong@KObj@@QAEXH@Z 10042390 f   KObj.obj
 0001:000413c0       ?Remove@KObj@@QAEXH@Z      100423c0 f   KObj.obj
 0001:00041400       ?GetKind@KObj@@QAEHXZ      10042400 f   KObj.obj
 0001:00041410       ?PolygonChangeToBar@KObj@@QAEXVKPolygon@@HHHHPAE@Z 10042410 f   KObj.obj
 0001:00041610       ??0ServerImage@@QAE@XZ     10042610 f   KObj.obj
 0001:00041620       ?Release@ServerImage@@QAEXXZ 10042620 f   KObj.obj
 0001:00041640       ?SetTotalFrame@ServerImage@@QAEXH@Z 10042640 f   KObj.obj
 0001:00041660       ?SetCurFrame@ServerImage@@QAEXH@Z 10042660 f   KObj.obj
 0001:000416a0       ?SetTotalDir@ServerImage@@QAEXH@Z 100426a0 f   KObj.obj
 0001:000416c0       ?SetCurDir@ServerImage@@QAEHH@Z 100426c0 f   KObj.obj
 0001:00041700       ?SetInterVal@ServerImage@@QAEXK@Z 10042700 f   KObj.obj
 0001:00041710       ?GetOneDirFrames@ServerImage@@QAEHXZ 10042710 f   KObj.obj
 0001:00041720       ?CheckEnd@ServerImage@@QAEHXZ 10042720 f   KObj.obj
 0001:00041740       ?SetDirStart@ServerImage@@QAEXXZ 10042740 f   KObj.obj
 0001:00041750       ?SetDirEnd@ServerImage@@QAEXXZ 10042750 f   KObj.obj
 0001:00041760       ?GetNextFrame@ServerImage@@QAEHH@Z 10042760 f   KObj.obj
 0001:000417c0       ?GetPrevFrame@ServerImage@@QAEHH@Z 100427c0 f   KObj.obj
 0001:00041820       ?SetCurDir64@ServerImage@@QAEHH@Z 10042820 f   KObj.obj
 0001:00041880       ?GetCurDirFrameNo@ServerImage@@QAEHXZ 10042880 f   KObj.obj
 0001:00041890       ?GetMpsPos@KObj@@QAEXPAH0@Z 10042890 f   KObj.obj
 0001:00041910       ??0KObjSet@@QAE@XZ         10042910 f   KObjSet.obj
 0001:00041970       ??1KObjSet@@QAE@XZ         10042970 f   KObjSet.obj
 0001:000419e0       ?Init@KObjSet@@QAEHXZ      100429e0 f   KObjSet.obj
 0001:00041a60       ?AddMoneyObj@KObjSet@@QAEHUKMapPos@@H@Z 10042a60 f   KObjSet.obj
 0001:00041b10       ?GetMoneyDataId@KObjSet@@AAEHH@Z 10042b10 f   KObjSet.obj
 0001:00041ba0       ?Add@KObjSet@@QAEHHUKMapPos@@UKObjItemInfo@@@Z 10042ba0 f   KObjSet.obj
 0001:00042000       ?AddData@KObjSet@@QAEHHUKMapPos@@HHHH@Z 10043000 f   KObjSet.obj
 0001:00042280       ?SetObjItem@KObjSet@@QAEHHHHH@Z 10043280 f   KObjSet.obj
 0001:000422d0       ?SyncAdd@KObjSet@@QAEHHH@Z 100432d0 f   KObjSet.obj
 0001:00042300       ?ServerLoadRegionObj@KObjSet@@QAEHPADHHH@Z 10043300 f   KObjSet.obj
 0001:000425c0       ?ServerLoadRegionObj@KObjSet@@QAEHHPAVKPakFile@@K@Z 100435c0 f   KObjSet.obj
 0001:000427e0       ?FindFree@KObjSet@@AAEHXZ  100437e0 f   KObjSet.obj
 0001:000427f0       ?CheckClientKind@KObjSet@@QAEHH@Z 100437f0 f   KObjSet.obj
 0001:00042830       ?FindID@KObjSet@@QAEHH@Z   10043830 f   KObjSet.obj
 0001:00042880       ?FindName@KObjSet@@QAEHPAD@Z 10043880 f   KObjSet.obj
 0001:00042910       ?GetID@KObjSet@@QAEHXZ     10043910 f   KObjSet.obj
 0001:00042920       ?Remove@KObjSet@@QAEXH@Z   10043920 f   KObjSet.obj
 0001:00042960       ?GetDataIDKind@KObjSet@@QAEHH@Z 10043960 f   KObjSet.obj
 0001:00042ce0       ?g_InitCore@@YAXXZ         10043ce0 f   KCore.obj
 0001:00043090       ?InitTaskSetting@@YAHXZ    10044090 f   KCore.obj
 0001:00043190       ?InitNpcSetting@@YAHXZ     10044190 f   KCore.obj
 0001:00043210       ?InitMissleSetting@@YAHXZ  10044210 f   KCore.obj
 0001:000432b0       ?InitSkillSetting@@YAHXZ   100442b0 f   KCore.obj
 0001:000432c0       ?LoadNpcSettingFromBinFile@@YAHPAD@Z 100442c0 f   KCore.obj
 0001:000432d0       ?SaveAsBinFileFromNpcSetting@@YAHPAD@Z 100442d0 f   KCore.obj
 0001:000432e0       ?GetCurrentRealTime@@YAXAAG00000@Z 100442e0 f   KCore.obj
 0001:00043350       ?ConvertTime_UNT@@YAIGGGGG@Z 10044350 f   KCore.obj
 0001:00043430       ?g_ReleaseCore@@YAXXZ      10044430 f   KCore.obj
 0001:000434b0       ??1KNpcTemplate@@QAE@XZ    100444b0 f i KCore.obj
 0001:000434c0       ?g_SetServer@@YAXPAX@Z     100444c0 f   KCore.obj
 0001:000435a0       ??1?$KMissionArray@VKMission@@$01@@QAE@XZ 100445a0 f i KSubWorld.obj
 0001:00043610       ??0?$KMissionArray@VKMission@@$01@@QAE@XZ 10044610 f i KSubWorld.obj
 0001:000436e0       ??1KMission@@QAE@XZ        100446e0 f i KSubWorld.obj
 0001:00043770       ??0KSubWorld@@QAE@XZ       10044770 f   KSubWorld.obj
 0001:00043850       ??1KSubWorld@@QAE@XZ       10044850 f   KSubWorld.obj
 0001:00043940       ??1KWorldMsg@@QAE@XZ       10044940 f i KSubWorld.obj
 0001:00043950       ??_EKRegion@@QAEPAXI@Z     10044950 f i KSubWorld.obj
 0001:000439b0       ?FindRegion@KSubWorld@@QAEHH@Z 100449b0 f   KSubWorld.obj
 0001:000439e0       ?FindFreeRegion@KSubWorld@@QAEHHH@Z 100449e0 f   KSubWorld.obj
 0001:00043a80       ?Activate@KSubWorld@@QAEXXZ 10044a80 f   KSubWorld.obj
 0001:00043ba0       ?GetDistance@KSubWorld@@QAEHHHHH@Z 10044ba0 f   KSubWorld.obj
 0001:00043be0       ?Map2Mps@KSubWorld@@QAEXHHHHHPAH0@Z 10044be0 f   KSubWorld.obj
 0001:00043c70       ?Map2Mps@KSubWorld@@SAXHHHHHHPAH0@Z 10044c70 f   KSubWorld.obj
 0001:00043cb0       ?Mps2Map@KSubWorld@@QAEXHHPAH0000@Z 10044cb0 f   KSubWorld.obj
 0001:00043e40       ?TestBarrier@KSubWorld@@QAEEHH@Z 10044e40 f   KSubWorld.obj
 0001:00043f70       ?TestBarrier@KSubWorld@@QAEEHHHHHHH@Z 10044f70 f   KSubWorld.obj
 0001:00044100       ?TestBarrierMin@KSubWorld@@QAEEHHHHHHH@Z 10045100 f   KSubWorld.obj
 0001:00044280       ?GetTrap@KSubWorld@@QAEKHH@Z 10045280 f   KSubWorld.obj
 0001:000442f0       ?SetTrap@KSubWorld@@QAEXHHK@Z 100452f0 f   KSubWorld.obj
 0001:00044360       ?GetBarrier@KSubWorld@@QAEEHH@Z 10045360 f   KSubWorld.obj
 0001:000443e0       ?LoadMap@KSubWorld@@QAEHH@Z 100453e0 f   KSubWorld.obj
 0001:000448d0       ?LoadTrap@KSubWorld@@AAEXXZ 100458d0 f   KSubWorld.obj
 0001:000448e0       ?MessageLoop@KSubWorld@@QAEXXZ 100458e0 f   KSubWorld.obj
 0001:00044960       ?ProcessMsg@KSubWorld@@AAEXPAVKWorldMsgNode@@@Z 10045960 f   KSubWorld.obj
 0001:00044b30       ?NpcChangeRegion@KSubWorld@@QAEXHHH@Z 10045b30 f   KSubWorld.obj
 0001:00044ca0       ?ObjChangeRegion@KSubWorld@@QAEXHHH@Z 10045ca0 f   KSubWorld.obj
 0001:00044db0       ?MissleChangeRegion@KSubWorld@@QAEXHHH@Z 10045db0 f   KSubWorld.obj
 0001:00044e50       ?PlayerChangeRegion@KSubWorld@@QAEXHHH@Z 10045e50 f   KSubWorld.obj
 0001:00044ed0       ?GetMps@KSubWorld@@QAEXPAH0HHH@Z 10045ed0 f   KSubWorld.obj
 0001:00044f30       ?SendSyncData@KSubWorld@@QAEHHH@Z 10045f30 f   KSubWorld.obj
 0001:00044fe0       ?GetRegionIndex@KSubWorld@@QAEHH@Z 10045fe0 f   KSubWorld.obj
 0001:00045030       ?Close@KSubWorld@@QAEXXZ   10046030 f   KSubWorld.obj
 0001:00045090       ?LoadObject@KSubWorld@@QAEXPAD0@Z 10046090 f   KSubWorld.obj
 0001:00045390       ?AddPlayer@KSubWorld@@QAEXHH@Z 10046390 f   KSubWorld.obj
 0001:00045450       ?RemovePlayer@KSubWorld@@QAEXHH@Z 10046450 f   KSubWorld.obj
 0001:00045530       ?GetFreeObjPos@KSubWorld@@QAEXAAUtagPOINT@@@Z 10046530 f   KSubWorld.obj
 0001:000456a0       ??0KMission@@QAE@XZ        100466a0 f i KSubWorld.obj
 0001:00045810       ?CanPutObj@KSubWorld@@QAEHUtagPOINT@@@Z 10046810 f   KSubWorld.obj
 0001:000458d0       ?BroadCast@KSubWorld@@QAEXPBDI@Z 100468d0 f   KSubWorld.obj
 0001:00045960       ?RevivalAllNpc@KSubWorld@@QAEHXZ 10046960 f   KSubWorld.obj
 0001:00045a50       ?FindNpcFromName@KSubWorld@@QAEHPBD@Z 10046a50 f   KSubWorld.obj
 0001:00045bb0       ?FindSame@?$KTimerFunArray@VKTimerTaskFun@@$03$1?g_MissionTimerCallBackFun@@YAHPAXPAD@Z@@UAEKPAVKTimerTaskFun@@@Z 10046bb0 f i KSubWorld.obj
 0001:00045bf0       ?Clear@?$KLinkArrayTemplate@VKTimerTaskFun@@$03@@QAEXXZ 10046bf0 f i KSubWorld.obj
 0001:00045c30       ?FindSame@?$_KMissionPlayerArray@UTMissionPlayerInfo@@$0BJA@@@UAEKPAUTMissionPlayerInfo@@@Z 10046c30 f i KSubWorld.obj
 0001:00045c70       ?Clear@?$KLinkArrayTemplate@UTMissionPlayerInfo@@$0BJA@@@QAEXXZ 10046c70 f i KSubWorld.obj
 0001:00045cb0       ?FindSame@?$KMissionArray@VKMission@@$01@@UAEKPAVKMission@@@Z 10046cb0 f i KSubWorld.obj
 0001:00045cf0       ??0?$KLinkArrayTemplate@VKMission@@$01@@QAE@XZ 10046cf0 f i KSubWorld.obj
 0001:00045db0       ??1?$KTimerFunArray@VKTimerTaskFun@@$03$1?g_MissionTimerCallBackFun@@YAHPAXPAD@Z@@QAE@XZ 10046db0 f i KSubWorld.obj
 0001:00045e20       ??0KSubWorldSet@@QAE@XZ    10046e20 f   KSubWorldSet.obj
 0001:00045e40       ?SearchWorld@KSubWorldSet@@QAEHK@Z 10046e40 f   KSubWorldSet.obj
 0001:00045e70       ?Load@KSubWorldSet@@QAEHPAD@Z 10046e70 f   KSubWorldSet.obj
 0001:00045f80       ?InitServerTimer@KSubWorldSet@@QAEHPAD@Z 10046f80 f   KSubWorldSet.obj
 0001:00045fa0       ?ExecuteScript@KSubWorldSet@@QAEXXZ 10046fa0 f   KSubWorldSet.obj
 0001:000460a0       ?MainLoop@KSubWorldSet@@QAEXXZ 100470a0 f   KSubWorldSet.obj
 0001:000460d0       ?MessageLoop@KSubWorldSet@@QAEXXZ 100470d0 f   KSubWorldSet.obj
 0001:000460f0       ?SendMessageA@KSubWorldSet@@QAEHHKHHH@Z 100470f0 f   KSubWorldSet.obj
 0001:00046170       ?Close@KSubWorldSet@@QAEXXZ 10047170 f   KSubWorldSet.obj
 0001:000461a0       ?GetRevivalPosFromId@KSubWorldSet@@QAEXKHPAUtagPOINT@@@Z 100471a0 f   KSubWorldSet.obj
 0001:00046220       ??0KWeatherMgr@@QAE@XZ     10047220 f   KWeatherMgr.obj
 0001:00046260       ?InitFromIni@KWeatherMgr@@QAE_NAAVKIniFile@@@Z 10047260 f   KWeatherMgr.obj
 0001:00046490       ?Activate@KWeatherMgr@@QAEHXZ 10047490 f   KWeatherMgr.obj
 0001:00046560       ??0KRegion@@QAE@XZ         10047560 f   KRegion.obj
 0001:00046650       ??1KRegion@@QAE@XZ         10047650 f   KRegion.obj
 0001:000466b0       ?Init@KRegion@@QAEHHH@Z    100476b0 f   KRegion.obj
 0001:000467a0       ?Load@KRegion@@QAEHHH@Z    100477a0 f   KRegion.obj
 0001:00046860       ?LoadObject@KRegion@@QAEHHHH@Z 10047860 f   KRegion.obj
 0001:00046d00       ?LoadServerObstacle@KRegion@@QAEHPAVKPakFile@@K@Z 10047d00 f   KRegion.obj
 0001:00046d50       ?LoadServerTrap@KRegion@@QAEHPAVKPakFile@@K@Z 10047d50 f   KRegion.obj
 0001:00046e50       ?LoadServerNpc@KRegion@@QAEHHPAVKPakFile@@K@Z 10047e50 f   KRegion.obj
 0001:00046f30       ?LoadServerObj@KRegion@@QAEHHPAVKPakFile@@K@Z 10047f30 f   KRegion.obj
 0001:00046f50       ?Activate@KRegion@@QAEXXZ  10047f50 f   KRegion.obj
 0001:00047130       ?AddNpc@KRegion@@QAEXH@Z   10048130 f   KRegion.obj
 0001:00047190       ?RemoveNpc@KRegion@@QAEXH@Z 10048190 f   KRegion.obj
 0001:00047200       ?AddMissle@KRegion@@QAEXH@Z 10048200 f   KRegion.obj
 0001:00047250       ?RemoveMissle@KRegion@@QAEXH@Z 10048250 f   KRegion.obj
 0001:000472c0       ?AddObj@KRegion@@QAEXH@Z   100482c0 f   KRegion.obj
 0001:00047340       ?RemoveObj@KRegion@@QAEXH@Z 10048340 f   KRegion.obj
 0001:000473d0       ?GetTrap@KRegion@@QAEKHH@Z 100483d0 f   KRegion.obj
 0001:00047400       ?SetTrap@KRegion@@QAEXHHK@Z 10048400 f   KRegion.obj
 0001:00047430       ?GetBarrier@KRegion@@QAEEHHHH@Z 10048430 f   KRegion.obj
 0001:000474e0       ?GetBarrierMin@KRegion@@QAEEHHHHH@Z 100484e0 f   KRegion.obj
 0001:000475b0       ?GetRef@KRegion@@QAEHHHW4MOVE_OBJ_KIND@@@Z 100485b0 f   KRegion.obj
 0001:00047630       ?AddRef@KRegion@@QAEHHHW4MOVE_OBJ_KIND@@@Z 10048630 f   KRegion.obj
 0001:000476a0       ?DecRef@KRegion@@QAEHHHW4MOVE_OBJ_KIND@@@Z 100486a0 f   KRegion.obj
 0001:00047710       ?AddPlayer@KRegion@@QAEHH@Z 10048710 f   KRegion.obj
 0001:00047780       ?RemovePlayer@KRegion@@QAEHH@Z 10048780 f   KRegion.obj
 0001:00047800       ?SearchNpc@KRegion@@QAEHK@Z 10048800 f   KRegion.obj
 0001:00047850       ?FindObject@KRegion@@QAEHHH@Z 10048850 f   KRegion.obj
 0001:000478a0       ?FindObject@KRegion@@QAEHH@Z 100488a0 f   KRegion.obj
 0001:000478e0       ?FindEquip@KRegion@@QAEHHH@Z 100488e0 f   KRegion.obj
 0001:00047940       ?SendSyncData@KRegion@@QAEXH@Z 10048940 f   KRegion.obj
 0001:000479c0       ?BroadCast@KRegion@@QAEXPAXKAAHHH@Z 100489c0 f   KRegion.obj
 0001:00047ab0       ?FindPlayer@KRegion@@QAEHK@Z 10048ab0 f   KRegion.obj
 0001:00047b20       ?CheckPlayerIn@KRegion@@QAEHH@Z 10048b20 f   KRegion.obj
 0001:00047b60       ?GetObjNode@KRegion@@QAEPAXH@Z 10048b60 f   KRegion.obj
 0001:00047b90       ?Close@KRegion@@QAEXXZ     10048b90 f   KRegion.obj
 0001:00047dd0       ?Get@KWorldMsg@@QAEHPAVKWorldMsgNode@@@Z 10048dd0 f   KWorldMsg.obj
 0001:00047e40       ?Peek@KWorldMsg@@QAEHPAVKWorldMsgNode@@K@Z 10048e40 f   KWorldMsg.obj
 0001:00047ea0       ?Clear@KWorldMsg@@QAEXXZ   10048ea0 f   KWorldMsg.obj
 0001:00047f10       ?g_InitMath@@YAHXZ         10048f10 f   KMath.obj
 0001:00047f20       ?g_UnInitMath@@YAHXZ       10048f20 f   KMath.obj
 0001:00047f30       ?g_InitSeries@@YAXXZ       10048f30 f   KMath.obj
 0001:00047f90       ?P_ProcessGMExecute@KNewProtocolProcess@@SAXPAUIClient@@KKHPAEH@Z 10048f90 f   KGMProcess.obj
 0001:00047fa0       ?P_ProcessGMFindPlayer@KNewProtocolProcess@@SAXPAUIClient@@KKHPAEH@Z 10048fa0 f   KGMProcess.obj
 0001:00047fb0       ?ExecuteLocalServer@KNewProtocolProcess@@QAEXQBXI@Z 10048fb0 f   KGMProcess.obj
 0001:00048060       ??0KNewProtocolProcess@@QAE@XZ 10049060 f   KNewProtocolProcess.obj
 0001:00048240       ??1?$map@GP6AXPAUIClient@@KKHPAEH@ZU?$less@G@std@@V?$allocator@P6AXPAUIClient@@KKHPAEH@Z@3@@std@@QAE@XZ 10049240 f i KNewProtocolProcess.obj
 0001:000482b0       ??1KNewProtocolProcess@@QAE@XZ 100492b0 f   KNewProtocolProcess.obj
 0001:00048420       ?ProcessNetMsg@KNewProtocolProcess@@QAEXPAUIClient@@KKHPAEH@Z 10049420 f   KNewProtocolProcess.obj
 0001:00048490       ?SendNetMsgToTransfer@KNewProtocolProcess@@QAEXPAUIClient@@@Z 10049490 f   KNewProtocolProcess.obj
 0001:00048570       ?SendNetMsgToChat@KNewProtocolProcess@@QAEXPAUIClient@@@Z 10049570 f   KNewProtocolProcess.obj
 0001:00048650       ?SendNetMsgToTong@KNewProtocolProcess@@QAEXPAUIClient@@@Z 10049650 f   KNewProtocolProcess.obj
 0001:00048730       ?PushMsgInTransfer@KNewProtocolProcess@@QAEXQBXI@Z 10049730 f   KNewProtocolProcess.obj
 0001:000487a0       ?PushMsgInChat@KNewProtocolProcess@@QAEXQBXI@Z 100497a0 f   KNewProtocolProcess.obj
 0001:00048810       ?PushMsgInTong@KNewProtocolProcess@@QAEXQBXI@Z 10049810 f   KNewProtocolProcess.obj
 0001:00048880       ?BroadcastGlobal@KNewProtocolProcess@@QAEXQBXI@Z 10049880 f   KNewProtocolProcess.obj
 0001:00048950       ?BroadcastLocalServer@KNewProtocolProcess@@QAEXQBXI@Z 10049950 f   KNewProtocolProcess.obj
 0001:000489c0       ?P_ProcessPlayerCommExtend@KNewProtocolProcess@@SAXPAUIClient@@KKHPAEH@Z 100499c0 f   KNewProtocolProcess.obj
 0001:00048a40       ?P_ProcessChatExtend@KNewProtocolProcess@@SAXPAUIClient@@KKHPAEH@Z 10049a40 f   KNewProtocolProcess.obj
 0001:00048ac0       ??1?$list@PAVCBuffer@Win32@OnlineGameLib@@V?$allocator@PAVCBuffer@Win32@OnlineGameLib@@@std@@@std@@QAE@XZ 10049ac0 f i KNewProtocolProcess.obj
 0001:00048b10       ??A?$map@GP6AXPAUIClient@@KKHPAEH@ZU?$less@G@std@@V?$allocator@P6AXPAUIClient@@KKHPAEH@Z@3@@std@@QAEAAP6AXPAUIClient@@KKHPAEH@ZABG@Z 10049b10 f i KNewProtocolProcess.obj
 0001:00048b50       ?insert@?$map@GP6AXPAUIClient@@KKHPAEH@ZU?$less@G@std@@V?$allocator@P6AXPAUIClient@@KKHPAEH@Z@3@@std@@QAE?AU?$pair@Viterator@?$_Tree@GU?$pair@$$CBGP6AXPAUIClient@@KKHPAEH@Z@std@@U_Kfn@?$map@GP6AXPAUIClient@@KKHPAEH@ZU?$less@G@std@@V?$allocator@P6AXPAUIClient@@KKHPAEH@Z@3@@2@U?$less@G@2@V?$allocator@P6AXPAUIClient@@KKHPAEH@Z@2@@std@@_N@2@ABU?$pair@$$CBGP6AXPAUIClient@@KKHPAEH@Z@2@@Z 10049b50 f i KNewProtocolProcess.obj
 0001:00048b80       ?erase@?$_Tree@GU?$pair@$$CBGP6AXPAUIClient@@KKHPAEH@Z@std@@U_Kfn@?$map@GP6AXPAUIClient@@KKHPAEH@ZU?$less@G@std@@V?$allocator@P6AXPAUIClient@@KKHPAEH@Z@3@@2@U?$less@G@2@V?$allocator@P6AXPAUIClient@@KKHPAEH@Z@2@@std@@QAE?AViterator@12@V312@0@Z 10049b80 f i KNewProtocolProcess.obj
 0001:00048cb0       ??0?$pair@$$CBGP6AXPAUIClient@@KKHPAEH@Z@std@@QAE@ABGABQ6AXPAUIClient@@KKHPAEH@Z@Z 10049cb0 f i KNewProtocolProcess.obj
 0001:00048cd0       ?erase@?$list@PAVCBuffer@Win32@OnlineGameLib@@V?$allocator@PAVCBuffer@Win32@OnlineGameLib@@@std@@@std@@QAE?AViterator@12@V312@@Z 10049cd0 f i KNewProtocolProcess.obj
 0001:00048d10       ??Eiterator@?$list@PAVCBuffer@Win32@OnlineGameLib@@V?$allocator@PAVCBuffer@Win32@OnlineGameLib@@@std@@@std@@QAE?AV012@H@Z 10049d10 f i KNewProtocolProcess.obj
 0001:00048d20       ?insert@?$_Tree@GU?$pair@$$CBGP6AXPAUIClient@@KKHPAEH@Z@std@@U_Kfn@?$map@GP6AXPAUIClient@@KKHPAEH@ZU?$less@G@std@@V?$allocator@P6AXPAUIClient@@KKHPAEH@Z@3@@2@U?$less@G@2@V?$allocator@P6AXPAUIClient@@KKHPAEH@Z@2@@std@@QAE?AU?$pair@Viterator@?$_Tree@GU?$pair@$$CBGP6AXPAUIClient@@KKHPAEH@Z@std@@U_Kfn@?$map@GP6AXPAUIClient@@KKHPAEH@ZU?$less@G@std@@V?$allocator@P6AXPAUIClient@@KKHPAEH@Z@3@@2@U?$less@G@2@V?$allocator@P6AXPAUIClient@@KKHPAEH@Z@2@@std@@_N@2@ABU?$pair@$$CBGP6AXPAUIClient@@KKHPAEH@Z@2@@Z 10049d20 f i KNewProtocolProcess.obj
 0001:00048e50       ?erase@?$_Tree@GU?$pair@$$CBGP6AXPAUIClient@@KKHPAEH@Z@std@@U_Kfn@?$map@GP6AXPAUIClient@@KKHPAEH@ZU?$less@G@std@@V?$allocator@P6AXPAUIClient@@KKHPAEH@Z@3@@2@U?$less@G@2@V?$allocator@P6AXPAUIClient@@KKHPAEH@Z@2@@std@@QAE?AViterator@12@V312@@Z 10049e50 f i KNewProtocolProcess.obj
 0001:00049370       ?_Erase@?$_Tree@GU?$pair@$$CBGP6AXPAUIClient@@KKHPAEH@Z@std@@U_Kfn@?$map@GP6AXPAUIClient@@KKHPAEH@ZU?$less@G@std@@V?$allocator@P6AXPAUIClient@@KKHPAEH@Z@3@@2@U?$less@G@2@V?$allocator@P6AXPAUIClient@@KKHPAEH@Z@2@@std@@IAEXPAU_Node@12@@Z 1004a370 f i KNewProtocolProcess.obj
 0001:00049400       ?_Init@?$_Tree@GU?$pair@$$CBGP6AXPAUIClient@@KKHPAEH@Z@std@@U_Kfn@?$map@GP6AXPAUIClient@@KKHPAEH@ZU?$less@G@std@@V?$allocator@P6AXPAUIClient@@KKHPAEH@Z@3@@2@U?$less@G@2@V?$allocator@P6AXPAUIClient@@KKHPAEH@Z@2@@std@@IAEXXZ 1004a400 f i KNewProtocolProcess.obj
 0001:000494b0       ?_Insert@?$_Tree@GU?$pair@$$CBGP6AXPAUIClient@@KKHPAEH@Z@std@@U_Kfn@?$map@GP6AXPAUIClient@@KKHPAEH@ZU?$less@G@std@@V?$allocator@P6AXPAUIClient@@KKHPAEH@Z@3@@2@U?$less@G@2@V?$allocator@P6AXPAUIClient@@KKHPAEH@Z@2@@std@@IAE?AViterator@12@PAU_Node@12@0ABU?$pair@$$CBGP6AXPAUIClient@@KKHPAEH@Z@2@@Z 1004a4b0 f i KNewProtocolProcess.obj
 0001:000497b0       ?_Dec@const_iterator@?$_Tree@GU?$pair@$$CBGP6AXPAUIClient@@KKHPAEH@Z@std@@U_Kfn@?$map@GP6AXPAUIClient@@KKHPAEH@ZU?$less@G@std@@V?$allocator@P6AXPAUIClient@@KKHPAEH@Z@3@@2@U?$less@G@2@V?$allocator@P6AXPAUIClient@@KKHPAEH@Z@2@@std@@QAEXXZ 1004a7b0 f i KNewProtocolProcess.obj
 0001:00049870       ?_Inc@const_iterator@?$_Tree@GU?$pair@$$CBGP6AXPAUIClient@@KKHPAEH@Z@std@@U_Kfn@?$map@GP6AXPAUIClient@@KKHPAEH@ZU?$less@G@std@@V?$allocator@P6AXPAUIClient@@KKHPAEH@Z@3@@2@U?$less@G@2@V?$allocator@P6AXPAUIClient@@KKHPAEH@Z@2@@std@@QAEXXZ 1004a870 f i KNewProtocolProcess.obj
 0001:00049920       ?_Construct@std@@YAXPAU?$pair@$$CBGP6AXPAUIClient@@KKHPAEH@Z@1@ABU21@@Z 1004a920 f i KNewProtocolProcess.obj
 0001:00049970       ?g_InitProtocol@@YAXXZ     1004a970 f   KProtocol.obj
 0001:00049990       ?SendServerCmdWalk@@YAXHH@Z 1004a990 f   KProtocol.obj
 0001:000499a0       ?SendServerCmdRun@@YAXHH@Z 1004a9a0 f   KProtocol.obj
 0001:000499f0       ??0KProtocolProcess@@QAE@XZ 1004a9f0 f   KProtocolProcess.obj
 0001:00049d00       ??1KProtocolProcess@@QAE@XZ 1004ad00 f   KProtocolProcess.obj
 0001:00049d10       ?ProcessNetMsg@KProtocolProcess@@QAEXHPAEH@Z 1004ad10 f   KProtocolProcess.obj
 0001:00049ec0       ?RemoveRole@KProtocolProcess@@AAEXHPAE@Z 1004aec0 f   KProtocolProcess.obj
 0001:00049ed0       ?NpcRequestCommand@KProtocolProcess@@AAEXHPAE@Z 1004aed0 f   KProtocolProcess.obj
 0001:00049f10       ?ObjRequestCommand@KProtocolProcess@@AAEXHPAE@Z 1004af10 f   KProtocolProcess.obj
 0001:00049f50       ?NpcWalkCommand@KProtocolProcess@@AAEXHPAE@Z 1004af50 f   KProtocolProcess.obj
 0001:00049fb0       ?NpcRunCommand@KProtocolProcess@@AAEXHPAE@Z 1004afb0 f   KProtocolProcess.obj
 0001:0004a010       ?NpcSkillCommand@KProtocolProcess@@AAEXHPAE@Z 1004b010 f   KProtocolProcess.obj
 0001:0004a0c0       ?NpcJumpCommand@KProtocolProcess@@AAEXHPAE@Z 1004b0c0 f   KProtocolProcess.obj
 0001:0004a120       ?NpcTalkCommand@KProtocolProcess@@AAEXHPAE@Z 1004b120 f   KProtocolProcess.obj
 0001:0004a130       ?PlayerTalkCommand@KProtocolProcess@@AAEXHPAE@Z 1004b130 f   KProtocolProcess.obj
 0001:0004a170       ?PlayerApplyTeamInfo@KProtocolProcess@@AAEXHPAE@Z 1004b170 f   KProtocolProcess.obj
 0001:0004a1a0       ?PlayerApplyCreateTeam@KProtocolProcess@@AAEXHPAE@Z 1004b1a0 f   KProtocolProcess.obj
 0001:0004a1d0       ?PlayerApplyTeamOpenClose@KProtocolProcess@@AAEXHPAE@Z 1004b1d0 f   KProtocolProcess.obj
 0001:0004a200       ?PlayerApplyAddTeam@KProtocolProcess@@AAEXHPAE@Z 1004b200 f   KProtocolProcess.obj
 0001:0004a230       ?PlayerAcceptTeamMember@KProtocolProcess@@AAEXHPAE@Z 1004b230 f   KProtocolProcess.obj
 0001:0004a260       ?PlayerApplyLeaveTeam@KProtocolProcess@@AAEXHPAE@Z 1004b260 f   KProtocolProcess.obj
 0001:0004a290       ?PlayerApplyTeamKickMember@KProtocolProcess@@AAEXHPAE@Z 1004b290 f   KProtocolProcess.obj
 0001:0004a2c0       ?PlayerApplyTeamChangeCaptain@KProtocolProcess@@AAEXHPAE@Z 1004b2c0 f   KProtocolProcess.obj
 0001:0004a2f0       ?PlayerApplyTeamDismiss@KProtocolProcess@@AAEXHPAE@Z 1004b2f0 f   KProtocolProcess.obj
 0001:0004a320       ?PlayerApplySetPK@KProtocolProcess@@AAEXHPAE@Z 1004b320 f   KProtocolProcess.obj
 0001:0004a350       ?PlayerApplyFactionData@KProtocolProcess@@AAEXHPAE@Z 1004b350 f   KProtocolProcess.obj
 0001:0004a360       ?PlayerSendChat@KProtocolProcess@@AAEXHPAE@Z 1004b360 f   KProtocolProcess.obj
 0001:0004a390       ?PlayerAddBaseAttribute@KProtocolProcess@@AAEXHPAE@Z 1004b390 f   KProtocolProcess.obj
 0001:0004a3e0       ?PlayerApplyAddSkillPoint@KProtocolProcess@@AAEXHPAE@Z 1004b3e0 f   KProtocolProcess.obj
 0001:0004a410       ?PlayerEatItem@KProtocolProcess@@AAEXHPAE@Z 1004b410 f   KProtocolProcess.obj
 0001:0004a440       ?PlayerPickUpItem@KProtocolProcess@@AAEXHPAE@Z 1004b440 f   KProtocolProcess.obj
 0001:0004a470       ?PlayerMoveItem@KProtocolProcess@@AAEXHPAE@Z 1004b470 f   KProtocolProcess.obj
 0001:0004a4a0       ?PlayerSellItem@KProtocolProcess@@AAEXHPAE@Z 1004b4a0 f   KProtocolProcess.obj
 0001:0004a4e0       ?PlayerBuyItem@KProtocolProcess@@AAEXHPAE@Z 1004b4e0 f   KProtocolProcess.obj
 0001:0004a520       ?PlayerDropItem@KProtocolProcess@@AAEXHPAE@Z 1004b520 f   KProtocolProcess.obj
 0001:0004a560       ?PlayerSelUI@KProtocolProcess@@AAEXHPAE@Z 1004b560 f   KProtocolProcess.obj
 0001:0004a590       ?ChatSetChannel@KProtocolProcess@@AAEXHPAE@Z 1004b590 f   KProtocolProcess.obj
 0001:0004a5c0       ?ChatApplyAddFriend@KProtocolProcess@@AAEXHPAE@Z 1004b5c0 f   KProtocolProcess.obj
 0001:0004a5f0       ?ChatAddFriend@KProtocolProcess@@AAEXHPAE@Z 1004b5f0 f   KProtocolProcess.obj
 0001:0004a620       ?ChatRefuseFriend@KProtocolProcess@@AAEXHPAE@Z 1004b620 f   KProtocolProcess.obj
 0001:0004a650       ?ChatApplyReSendAllFriendName@KProtocolProcess@@AAEXHPAE@Z 1004b650 f   KProtocolProcess.obj
 0001:0004a680       ?ChatApplySendOneFriendName@KProtocolProcess@@AAEXHPAE@Z 1004b680 f   KProtocolProcess.obj
 0001:0004a6b0       ?ChatDeleteFriend@KProtocolProcess@@AAEXHPAE@Z 1004b6b0 f   KProtocolProcess.obj
 0001:0004a6c0       ?ChatReDeleteFriend@KProtocolProcess@@AAEXHPAE@Z 1004b6c0 f   KProtocolProcess.obj
 0001:0004a6d0       ?TradeApplyOpen@KProtocolProcess@@AAEXHPAE@Z 1004b6d0 f   KProtocolProcess.obj
 0001:0004a700       ?ActiveSale@KProtocolProcess@@AAEXHPAE@Z 1004b700 f   KProtocolProcess.obj
 0001:0004a730       ?ClickShop@KProtocolProcess@@AAEXHPAE@Z 1004b730 f   KProtocolProcess.obj
 0001:0004a760       ?TradeApplyClose@KProtocolProcess@@AAEXHPAE@Z 1004b760 f   KProtocolProcess.obj
 0001:0004a790       ?TradeApplyStart@KProtocolProcess@@AAEXHPAE@Z 1004b790 f   KProtocolProcess.obj
 0001:0004a7c0       ?TradeDecision@KProtocolProcess@@AAEXHPAE@Z 1004b7c0 f   KProtocolProcess.obj
 0001:0004a7f0       ?DialogNpc@KProtocolProcess@@AAEXHPAE@Z 1004b7f0 f   KProtocolProcess.obj
 0001:0004a820       ?TeamInviteAdd@KProtocolProcess@@AAEXHPAE@Z 1004b820 f   KProtocolProcess.obj
 0001:0004a850       ?WarehouseCommand@KProtocolProcess@@AAEXHPAE@Z 1004b850 f   KProtocolProcess.obj
 0001:0004a920       ?ChangeAuraSkill@KProtocolProcess@@AAEXHPAE@Z 1004b920 f   KProtocolProcess.obj
 0001:0004a960       ?TeamReplyInvite@KProtocolProcess@@AAEXHPAE@Z 1004b960 f   KProtocolProcess.obj
 0001:0004aa90       ?NpcDownHorseCommand@KProtocolProcess@@AAEXHPAE@Z 1004ba90 f   KProtocolProcess.obj
 0001:0004ab40       ?NpcSitCommand@KProtocolProcess@@AAEXHPAE@Z 1004bb40 f   KProtocolProcess.obj
 0001:0004ac10       ?ObjMouseClick@KProtocolProcess@@AAEXHPAE@Z 1004bc10 f   KProtocolProcess.obj
 0001:0004adf0       ?StoreMoneyCommand@KProtocolProcess@@AAEXHPAE@Z 1004bdf0 f   KProtocolProcess.obj
 0001:0004ae60       ?NpcReviveCommand@KProtocolProcess@@AAEXHPAE@Z 1004be60 f   KProtocolProcess.obj
 0001:0004ae90       ?c2sTradeReplyStart@KProtocolProcess@@AAEXHPAE@Z 1004be90 f   KProtocolProcess.obj
 0001:0004aec0       ?c2sPKApplyChangeNormalFlag@KProtocolProcess@@AAEXHPAE@Z 1004bec0 f   KProtocolProcess.obj
 0001:0004af00       ?c2sPKApplyEnmity@KProtocolProcess@@AAEXHPAE@Z 1004bf00 f   KProtocolProcess.obj
 0001:0004b030       ?c2sViewEquip@KProtocolProcess@@AAEXHPAE@Z 1004c030 f   KProtocolProcess.obj
 0001:0004b0c0       ?LadderQuery@KProtocolProcess@@AAEXHPAE@Z 1004c0c0 f   KProtocolProcess.obj
 0001:0004b160       ?ItemRepair@KProtocolProcess@@AAEXHPAE@Z 1004c160 f   KProtocolProcess.obj
 0001:0004b1a0       ?SetPricedItem@KProtocolProcess@@AAEXHPAE@Z 1004c1a0 f   KProtocolProcess.obj
 0001:0004b1e0       ?GodCommand@KProtocolProcess@@AAEXHPAE@Z 1004c1e0 f   KProtocolProcess.obj
 0001:0004bb10       ?DealGame@KProtocolProcess@@AAEXHPAE@Z 1004cb10 f   KProtocolProcess.obj
 0001:0004bb50       ?BuyMarket@KProtocolProcess@@AAEXHPAE@Z 1004cb50 f   KProtocolProcess.obj
 0001:0004bb90       ?SetSomeStatus@KProtocolProcess@@AAEXHPAE@Z 1004cb90 f   KProtocolProcess.obj
 0001:0004bd60       ?ReturnItem@KProtocolProcess@@AAEXHPAE@Z 1004cd60 f   KProtocolProcess.obj
 0001:0004bda0       ?StartEnchasing@KProtocolProcess@@AAEXHPAE@Z 1004cda0 f   KProtocolProcess.obj
 0001:0004bdf0       ?SplitItem@KProtocolProcess@@AAEXHPAE@Z 1004cdf0 f   KProtocolProcess.obj
 0001:0004be20       ?LockItem@KProtocolProcess@@AAEXHPAE@Z 1004ce20 f   KProtocolProcess.obj
 0001:0004be90       ?LuaGetBit@@YAHPAUlua_State@@@Z 1004ce90 f   ScriptFuns.obj
 0001:0004bf00       ?LuaSetBit@@YAHPAUlua_State@@@Z 1004cf00 f   ScriptFuns.obj
 0001:0004bf70       ?LuaSetNumber@@YAHPAUlua_State@@@Z 1004cf70 f   ScriptFuns.obj
 0001:0004c030       ?LuaGetNumber@@YAHPAUlua_State@@@Z 1004d030 f   ScriptFuns.obj
 0001:0004c0c0       ?LuaSetNumber2@@YAHPAUlua_State@@@Z 1004d0c0 f   ScriptFuns.obj
 0001:0004c190       ?LuaGetNumber2@@YAHPAUlua_State@@@Z 1004d190 f   ScriptFuns.obj
 0001:0004c220       ?LuaSetNumber3@@YAHPAUlua_State@@@Z 1004d220 f   ScriptFuns.obj
 0001:0004c300       ?LuaGetNumber3@@YAHPAUlua_State@@@Z 1004d300 f   ScriptFuns.obj
 0001:0004c3a0       ?LuaGetByte@@YAHPAUlua_State@@@Z 1004d3a0 f   ScriptFuns.obj
 0001:0004c410       ?LuaSetByte@@YAHPAUlua_State@@@Z 1004d410 f   ScriptFuns.obj
 0001:0004c480       ?LuaModifyRepute@@YAHPAUlua_State@@@Z 1004d480 f   ScriptFuns.obj
 0001:0004c5a0       ?LuaModifyBlessedFate@@YAHPAUlua_State@@@Z 1004d5a0 f   ScriptFuns.obj
 0001:0004c6c0       ?LuaModifyAccumulate@@YAHPAUlua_State@@@Z 1004d6c0 f   ScriptFuns.obj
 0001:0004c7e0       ?LuaModifyHonor@@YAHPAUlua_State@@@Z 1004d7e0 f   ScriptFuns.obj
 0001:0004c900       ?LuaModifyBonusPoint@@YAHPAUlua_State@@@Z 1004d900 f   ScriptFuns.obj
 0001:0004ca20       ?LuaIncPoint@@YAHPAUlua_State@@@Z 1004da20 f   ScriptFuns.obj
 0001:0004ca90       ?LuaResetProp@@YAHPAUlua_State@@@Z 1004da90 f   ScriptFuns.obj
 0001:0004cb00       ?LuaGetRepute@@YAHPAUlua_State@@@Z 1004db00 f   ScriptFuns.obj
 0001:0004cb60       ?LuaGetBlessedFate@@YAHPAUlua_State@@@Z 1004db60 f   ScriptFuns.obj
 0001:0004cbc0       ?LuaGetAccumulate@@YAHPAUlua_State@@@Z 1004dbc0 f   ScriptFuns.obj
 0001:0004cc20       ?LuaGetHonor@@YAHPAUlua_State@@@Z 1004dc20 f   ScriptFuns.obj
 0001:0004cc80       ?LuaGetBonus@@YAHPAUlua_State@@@Z 1004dc80 f   ScriptFuns.obj
 0001:0004cce0       ?LuaGetNpcCount@@YAHPAUlua_State@@@Z 1004dce0 f   ScriptFuns.obj
 0001:0004cd00       ?LuaGetTotalItem@@YAHPAUlua_State@@@Z 1004dd00 f   ScriptFuns.obj
 0001:0004cd20       ?GetSubWorldIndex@@YAHPAUlua_State@@@Z 1004dd20 f   ScriptFuns.obj
 0001:0004cda0       ?LuaSubWorldIDToIndex@@YAHPAUlua_State@@@Z 1004dda0 f   ScriptFuns.obj
 0001:0004ce00       ?LuaGetSubWorldName@@YAHPAUlua_State@@@Z 1004de00 f   ScriptFuns.obj
 0001:0004ce80       ?LuaSelectUI@@YAHPAUlua_State@@@Z 1004de80 f   ScriptFuns.obj
 0001:0004d220       ?LuaSaySPR@@YAHPAUlua_State@@@Z 1004e220 f   ScriptFuns.obj
 0001:0004d640       ?LuaGetReward@@YAHPAUlua_State@@@Z 1004e640 f   ScriptFuns.obj
 0001:0004d960       ?LuaPutItem@@YAHPAUlua_State@@@Z 1004e960 f   ScriptFuns.obj
 0001:0004dcd0       ?LuaPutTremble@@YAHPAUlua_State@@@Z 1004ecd0 f   ScriptFuns.obj
 0001:0004df10       ?LuaGetInput@@YAHPAUlua_State@@@Z 1004ef10 f   ScriptFuns.obj
 0001:0004dfe0       ?LuaSendMessageInfo@@YAHPAUlua_State@@@Z 1004efe0 f   ScriptFuns.obj
 0001:0004e0c0       ?LuaAddGlobalNews@@YAHPAUlua_State@@@Z 1004f0c0 f   ScriptFuns.obj
 0001:0004e200       ?LuaAddLocalNews@@YAHPAUlua_State@@@Z 1004f200 f   ScriptFuns.obj
 0001:0004e340       ?LuaAddGlobalCountNews@@YAHPAUlua_State@@@Z 1004f340 f   ScriptFuns.obj
 0001:0004e4b0       ?LuaAddLocalCountNews@@YAHPAUlua_State@@@Z 1004f4b0 f   ScriptFuns.obj
 0001:0004e620       ?LuaAddGlobalTimeNews@@YAHPAUlua_State@@@Z 1004f620 f   ScriptFuns.obj
 0001:0004e810       ?LuaAddLocalTimeNews@@YAHPAUlua_State@@@Z 1004f810 f   ScriptFuns.obj
 0001:0004ea00       ?LuaAddNote@@YAHPAUlua_State@@@Z 1004fa00 f   ScriptFuns.obj
 0001:0004eb40       ?LuaTalkUI@@YAHPAUlua_State@@@Z 1004fb40 f   ScriptFuns.obj
 0001:0004ed70       ?LuaIncludeFile@@YAHPAUlua_State@@@Z 1004fd70 f   ScriptFuns.obj
 0001:0004ee90       ?LuaGetTaskValue@@YAHPAUlua_State@@@Z 1004fe90 f   ScriptFuns.obj
 0001:0004ef10       ?LuaSetTaskValue@@YAHPAUlua_State@@@Z 1004ff10 f   ScriptFuns.obj
 0001:0004ef70       ?LuaGetTempTaskValue@@YAHPAUlua_State@@@Z 1004ff70 f   ScriptFuns.obj
 0001:0004f010       ?LuaSetTempTaskValue@@YAHPAUlua_State@@@Z 10050010 f   ScriptFuns.obj
 0001:0004f090       ?LuaSale@@YAHPAUlua_State@@@Z 10050090 f   ScriptFuns.obj
 0001:0004f100       ?LuaTrade@@YAHPAUlua_State@@@Z 10050100 f   ScriptFuns.obj
 0001:0004f110       ?LuaOpenBox@@YAHPAUlua_State@@@Z 10050110 f   ScriptFuns.obj
 0001:0004f1a0       ?LuaSetPass@@YAHPAUlua_State@@@Z 100501a0 f   ScriptFuns.obj
 0001:0004f200       ?LuaPotion@@YAHPAUlua_State@@@Z 10050200 f   ScriptFuns.obj
 0001:0004f3c0       ?LuaOpenEnchase@@YAHPAUlua_State@@@Z 100503c0 f   ScriptFuns.obj
 0001:0004f490       ?LuaGetRandom@@YAHPAUlua_State@@@Z 10050490 f   ScriptFuns.obj
 0001:0004f570       ?LuaSetExpandWarehouse@@YAHPAUlua_State@@@Z 10050570 f   ScriptFuns.obj
 0001:0004f620       ?LuaGetExpandWarehouse@@YAHPAUlua_State@@@Z 10050620 f   ScriptFuns.obj
 0001:0004f680       ?LuaAddEquipExTime@@YAHPAUlua_State@@@Z 10050680 f   ScriptFuns.obj
 0001:0004f750       ?LuaAddSkillState@@YAHPAUlua_State@@@Z 10050750 f   ScriptFuns.obj
 0001:0004f800       ?LuaCastSkill@@YAHPAUlua_State@@@Z 10050800 f   ScriptFuns.obj
 0001:0004f890       ?LuaAddSkillExp@@YAHPAUlua_State@@@Z 10050890 f   ScriptFuns.obj
 0001:0004fac0       ?LuaSetTimer@@YAHPAUlua_State@@@Z 10050ac0 f   ScriptFuns.obj
 0001:0004fb30       ?LuaStopTimer@@YAHPAUlua_State@@@Z 10050b30 f   ScriptFuns.obj
 0001:0004fb70       ?LuaGetCurTimerId@@YAHPAUlua_State@@@Z 10050b70 f   ScriptFuns.obj
 0001:0004fbd0       ?LuaGetRestTime@@YAHPAUlua_State@@@Z 10050bd0 f   ScriptFuns.obj
 0001:0004fc60       ?LuaGetMissionRestTime@@YAHPAUlua_State@@@Z 10050c60 f   ScriptFuns.obj
 0001:0004fec0       ?LuaGetCurrentTime@@YAHPAUlua_State@@@Z 10050ec0 f   ScriptFuns.obj
 0001:0004ffb0       ?LuaGetCurrentTimeByMinute@@YAHPAUlua_State@@@Z 10050fb0 f   ScriptFuns.obj
 0001:00050020       ?LuaIsLeader@@YAHPAUlua_State@@@Z 10051020 f   ScriptFuns.obj
 0001:00050090       ?LuaGetTeamId@@YAHPAUlua_State@@@Z 10051090 f   ScriptFuns.obj
 0001:000500f0       ?LuaGetTeamSize@@YAHPAUlua_State@@@Z 100510f0 f   ScriptFuns.obj
 0001:00050190       ?LuaGetTeamMem@@YAHPAUlua_State@@@Z 10051190 f   ScriptFuns.obj
 0001:00050260       ?LuaLeaveTeam@@YAHPAUlua_State@@@Z 10051260 f   ScriptFuns.obj
 0001:000502b0       ?LuaSetCreateTeamOption@@YAHPAUlua_State@@@Z 100512b0 f   ScriptFuns.obj
 0001:00050310       ?LuaMsgToPlayer@@YAHPAUlua_State@@@Z 10051310 f   ScriptFuns.obj
 0001:00050370       ?LuaMsgSystem@@YAHPAUlua_State@@@Z 10051370 f   ScriptFuns.obj
 0001:000503d0       ?LuaMsgToTeam@@YAHPAUlua_State@@@Z 100513d0 f   ScriptFuns.obj
 0001:000504b0       ?LuaMsgToSubWorld@@YAHPAUlua_State@@@Z 100514b0 f   ScriptFuns.obj
 0001:00050500       ?LuaMsgToAroundRegion@@YAHPAUlua_State@@@Z 10051500 f   ScriptFuns.obj
 0001:00050510       ?LuaEnterNewWorld@@YAHPAUlua_State@@@Z 10051510 f   ScriptFuns.obj
 0001:000505e0       ?LuaSetPos@@YAHPAUlua_State@@@Z 100515e0 f   ScriptFuns.obj
 0001:000506a0       ?LuaGetPos@@YAHPAUlua_State@@@Z 100516a0 f   ScriptFuns.obj
 0001:00050760       ?LuaGetNewWorldPos@@YAHPAUlua_State@@@Z 10051760 f   ScriptFuns.obj
 0001:00050880       ?LuaSetItemDate@@YAHPAUlua_State@@@Z 10051880 f   ScriptFuns.obj
 0001:00050b90       ?LuaLockItemWhenDoScript@@YAHPAUlua_State@@@Z 10051b90 f   ScriptFuns.obj
 0001:00050bf0       ?LuaLockItem@@YAHPAUlua_State@@@Z 10051bf0 f   ScriptFuns.obj
 0001:00050d20       ?LuaCheckRoom@@YAHPAUlua_State@@@Z 10051d20 f   ScriptFuns.obj
 0001:00050e00       ?LuaItemSetAdd@@YAHPAUlua_State@@@Z 10051e00 f   ScriptFuns.obj
 0001:00050f10       ?LuaAddItemAtItemList@@YAHPAUlua_State@@@Z 10051f10 f   ScriptFuns.obj
 0001:00050fc0       ?LuaSetItemRich@@YAHPAUlua_State@@@Z 10051fc0 f   ScriptFuns.obj
 0001:00051030       ?LuaSetItemPickDel@@YAHPAUlua_State@@@Z 10052030 f   ScriptFuns.obj
 0001:000510a0       ?LuaAddItemID@@YAHPAUlua_State@@@Z 100520a0 f   ScriptFuns.obj
 0001:00051310       ?LuaRestoreItem@@YAHPAUlua_State@@@Z 10052310 f   ScriptFuns.obj
 0001:000517d0       ?LuaGetItemMagic@@YAHPAUlua_State@@@Z 100527d0 f   ScriptFuns.obj
 0001:000519d0       ?LuaGetItemLock@@YAHPAUlua_State@@@Z 100529d0 f   ScriptFuns.obj
 0001:00051af0       ?LuaChangeItemMagic@@YAHPAUlua_State@@@Z 10052af0 f   ScriptFuns.obj
 0001:00051bf0       ?LuaGetItemParam@@YAHPAUlua_State@@@Z 10052bf0 f   ScriptFuns.obj
 0001:00051e50       ?LuaGetItemLevel@@YAHPAUlua_State@@@Z 10052e50 f   ScriptFuns.obj
 0001:00051ee0       ?LuaRemoveItem@@YAHPAUlua_State@@@Z 10052ee0 f   ScriptFuns.obj
 0001:00052040       ?LuaAddItem@@YAHPAUlua_State@@@Z 10053040 f   ScriptFuns.obj
 0001:00052400       ?LuaAddNpcItem@@YAHPAUlua_State@@@Z 10053400 f   ScriptFuns.obj
 0001:00052600       ?LuaAddNpcItemID@@YAHPAUlua_State@@@Z 10053600 f   ScriptFuns.obj
 0001:000526a0       ?LuaAddNpcMoney@@YAHPAUlua_State@@@Z 100536a0 f   ScriptFuns.obj
 0001:00052720       ?LuaAddObj@@YAHPAUlua_State@@@Z 10053720 f   ScriptFuns.obj
 0001:00052950       ?LuaGetItemCount@@YAHPAUlua_State@@@Z 10053950 f   ScriptFuns.obj
 0001:00052a40       ?LuaDelItem@@YAHPAUlua_State@@@Z 10053a40 f   ScriptFuns.obj
 0001:00052b60       ?LuaAddMagic@@YAHPAUlua_State@@@Z 10053b60 f   ScriptFuns.obj
 0001:00052d00       ?LuaResetMagicPoint@@YAHPAUlua_State@@@Z 10053d00 f   ScriptFuns.obj
 0001:00052d90       ?LuaIncreaseSkillLevel@@YAHPAUlua_State@@@Z 10053d90 f   ScriptFuns.obj
 0001:00052e50       ?LuaDelMagic@@YAHPAUlua_State@@@Z 10053e50 f   ScriptFuns.obj
 0001:00052f60       ?LuaGetSkillIdInSkillList@@YAHPAUlua_State@@@Z 10053f60 f   ScriptFuns.obj
 0001:00053010       ?LuaClearSkills@@YAHPAUlua_State@@@Z 10054010 f   ScriptFuns.obj
 0001:00053070       ?LuaGetMagicLevel@@YAHPAUlua_State@@@Z 10054070 f   ScriptFuns.obj
 0001:00053190       ?LuaGetNpcTemplateID@@YAHPAUlua_State@@@Z 10054190 f   ScriptFuns.obj
 0001:00053200       ?LuaAddNpc@@YAHPAUlua_State@@@Z 10054200 f   ScriptFuns.obj
 0001:00053380       ?LuaDelNpc@@YAHPAUlua_State@@@Z 10054380 f   ScriptFuns.obj
 0001:000534c0       ?LuaSetNpcActionScript@@YAHPAUlua_State@@@Z 100544c0 f   ScriptFuns.obj
 0001:00053590       ?LuaSetNpcDropScript@@YAHPAUlua_State@@@Z 10054590 f   ScriptFuns.obj
 0001:00053610       ?LuaSetNpcSeries@@YAHPAUlua_State@@@Z 10054610 f   ScriptFuns.obj
 0001:000536d0       ?LuaSetNpcExperience@@YAHPAUlua_State@@@Z 100546d0 f   ScriptFuns.obj
 0001:00053780       ?LuaSetNpcLife@@YAHPAUlua_State@@@Z 10054780 f   ScriptFuns.obj
 0001:00053840       ?LuaSetNpcReplenish@@YAHPAUlua_State@@@Z 10054840 f   ScriptFuns.obj
 0001:000538e0       ?LuaSetNpcAttackRating@@YAHPAUlua_State@@@Z 100548e0 f   ScriptFuns.obj
 0001:00053990       ?LuaSetNpcDefense@@YAHPAUlua_State@@@Z 10054990 f   ScriptFuns.obj
 0001:00053a40       ?LuaSetNpcDamage@@YAHPAUlua_State@@@Z 10054a40 f   ScriptFuns.obj
 0001:00053b30       ?LuaSetNpcResist@@YAHPAUlua_State@@@Z 10054b30 f   ScriptFuns.obj
 0001:00053cf0       ?LuaSetNpcReviveFrame@@YAHPAUlua_State@@@Z 10054cf0 f   ScriptFuns.obj
 0001:00053d60       ?LuaSetNpcHitRecover@@YAHPAUlua_State@@@Z 10054d60 f   ScriptFuns.obj
 0001:00053e10       ?LuaSetNpcSpeed@@YAHPAUlua_State@@@Z 10054e10 f   ScriptFuns.obj
 0001:00053ec0       ?LuaSetNpcSkill@@YAHPAUlua_State@@@Z 10054ec0 f   ScriptFuns.obj
 0001:00053fa0       ?LuaSetNpcName@@YAHPAUlua_State@@@Z 10054fa0 f   ScriptFuns.obj
 0001:000540e0       ?LuaSetPlayerRevivalPos@@YAHPAUlua_State@@@Z 100550e0 f   ScriptFuns.obj
 0001:00054170       ?LuaGetRevivalPos@@YAHPAUlua_State@@@Z 10055170 f   ScriptFuns.obj
 0001:000541f0       ?LuaGetRevivalID@@YAHPAUlua_State@@@Z 100551f0 f   ScriptFuns.obj
 0001:00054250       ?LuaSetNpcValue@@YAHPAUlua_State@@@Z 10055250 f   ScriptFuns.obj
 0001:000542c0       ?LuaGetNpcValue@@YAHPAUlua_State@@@Z 100552c0 f   ScriptFuns.obj
 0001:00054330       ?LuaGetPlayerCurrentCamp@@YAHPAUlua_State@@@Z 10055330 f   ScriptFuns.obj
 0001:000543a0       ?LuaGetPlayerCamp@@YAHPAUlua_State@@@Z 100553a0 f   ScriptFuns.obj
 0001:00054410       ?LuaSetPlayerCamp@@YAHPAUlua_State@@@Z 10055410 f   ScriptFuns.obj
 0001:00054470       ?LuaSetPlayerCurrentCamp@@YAHPAUlua_State@@@Z 10055470 f   ScriptFuns.obj
 0001:000544d0       ?LuaSetNpcCurCamp@@YAHPAUlua_State@@@Z 100554d0 f   ScriptFuns.obj
 0001:00054540       ?LuaRestorePlayerCamp@@YAHPAUlua_State@@@Z 10055540 f   ScriptFuns.obj
 0001:00054590       ?LuaOpenTong@@YAHPAUlua_State@@@Z 10055590 f   ScriptFuns.obj
 0001:00054620       ?LuaGetPlayerFaction@@YAHPAUlua_State@@@Z 10055620 f   ScriptFuns.obj
 0001:00054690       ?LuaGetPlayerFactionNo@@YAHPAUlua_State@@@Z 10055690 f   ScriptFuns.obj
 0001:00054700       ?LuaChangePlayerFaction@@YAHPAUlua_State@@@Z 10055700 f   ScriptFuns.obj
 0001:000547b0       ?LuaChangePlayerFactionNo@@YAHPAUlua_State@@@Z 100557b0 f   ScriptFuns.obj
 0001:00054850       ?LuaSetPlayerColdResist@@YAHPAUlua_State@@@Z 10055850 f   ScriptFuns.obj
 0001:00054900       ?LuaSetPlayerFireResist@@YAHPAUlua_State@@@Z 10055900 f   ScriptFuns.obj
 0001:000549b0       ?LuaSetPlayerLightResist@@YAHPAUlua_State@@@Z 100559b0 f   ScriptFuns.obj
 0001:00054a60       ?LuaSetPlayerPoisonResist@@YAHPAUlua_State@@@Z 10055a60 f   ScriptFuns.obj
 0001:00054b10       ?LuaSetPlayerPhysicsResist@@YAHPAUlua_State@@@Z 10055b10 f   ScriptFuns.obj
 0001:00054bc0       ?LuaGetPlayerColdResist@@YAHPAUlua_State@@@Z 10055bc0 f   ScriptFuns.obj
 0001:00054cb0       ?LuaGetPlayerFireResist@@YAHPAUlua_State@@@Z 10055cb0 f   ScriptFuns.obj
 0001:00054da0       ?LuaGetPlayerLightResist@@YAHPAUlua_State@@@Z 10055da0 f   ScriptFuns.obj
 0001:00054e90       ?LuaGetPlayerPoisonResist@@YAHPAUlua_State@@@Z 10055e90 f   ScriptFuns.obj
 0001:00054f80       ?LuaGetPlayerPhysicsResist@@YAHPAUlua_State@@@Z 10055f80 f   ScriptFuns.obj
 0001:00055080       ?LuaGetPlayerExp@@YAHPAUlua_State@@@Z 10056080 f   ScriptFuns.obj
 0001:000550e0       ?LuaGetPlayerExpNext@@YAHPAUlua_State@@@Z 100560e0 f   ScriptFuns.obj
 0001:00055140       ?LuaModifyPlayerExp@@YAHPAUlua_State@@@Z 10056140 f   ScriptFuns.obj
 0001:000551d0       ?LuaAddOwnExp@@YAHPAUlua_State@@@Z 100561d0 f   ScriptFuns.obj
 0001:00055230       ?LuaGetPlayerLevel@@YAHPAUlua_State@@@Z 10056230 f   ScriptFuns.obj
 0001:000552a0       ?LuaRestorePlayerLife@@YAHPAUlua_State@@@Z 100562a0 f   ScriptFuns.obj
 0001:000552f0       ?LuaRestorePlayerMana@@YAHPAUlua_State@@@Z 100562f0 f   ScriptFuns.obj
 0001:00055340       ?LuaRestorePlayerStamina@@YAHPAUlua_State@@@Z 10056340 f   ScriptFuns.obj
 0001:00055390       ?LuaGetPlayerLifeReplenish@@YAHPAUlua_State@@@Z 10056390 f   ScriptFuns.obj
 0001:00055400       ?LuaGetPlayerLife@@YAHPAUlua_State@@@Z 10056400 f   ScriptFuns.obj
 0001:000554c0       ?LuaGetPlayerMana@@YAHPAUlua_State@@@Z 100564c0 f   ScriptFuns.obj
 0001:00055580       ?LuaGetPlayerStamina@@YAHPAUlua_State@@@Z 10056580 f   ScriptFuns.obj
 0001:00055640       ?LuaSetPlayerLife@@YAHPAUlua_State@@@Z 10056640 f   ScriptFuns.obj
 0001:000556a0       ?LuaSetPlayerMana@@YAHPAUlua_State@@@Z 100566a0 f   ScriptFuns.obj
 0001:00055700       ?LuaSetPlayerStamina@@YAHPAUlua_State@@@Z 10056700 f   ScriptFuns.obj
 0001:00055760       ?LuaGetPlayerManaReplenish@@YAHPAUlua_State@@@Z 10056760 f   ScriptFuns.obj
 0001:000557d0       ?LuaGetPlayerDefend@@YAHPAUlua_State@@@Z 100567d0 f   ScriptFuns.obj
 0001:00055840       ?LuaGetPlayerSex@@YAHPAUlua_State@@@Z 10056840 f   ScriptFuns.obj
 0001:000558b0       ?LuaGetPlayerSeries@@YAHPAUlua_State@@@Z 100568b0 f   ScriptFuns.obj
 0001:00055920       ?LuaSetPlayerSeries@@YAHPAUlua_State@@@Z 10056920 f   ScriptFuns.obj
 0001:00055980       ?LuaGetPlayerCount@@YAHPAUlua_State@@@Z 10056980 f   ScriptFuns.obj
 0001:000559a0       ?LuaGetPlayerName@@YAHPAUlua_State@@@Z 100569a0 f   ScriptFuns.obj
 0001:000559f0       ?LuaGetPlayerLoveName@@YAHPAUlua_State@@@Z 100569f0 f   ScriptFuns.obj
 0001:00055a40       ?LuaFindPlayerByName@@YAHPAUlua_State@@@Z 10056a40 f   ScriptFuns.obj
 0001:00055ab0       ?LuaGetPlayerID@@YAHPAUlua_State@@@Z 10056ab0 f   ScriptFuns.obj
 0001:00055b10       ?LuaGetPlayerLeadExp@@YAHPAUlua_State@@@Z 10056b10 f   ScriptFuns.obj
 0001:00055b80       ?LuaGetPlayerLeadLevel@@YAHPAUlua_State@@@Z 10056b80 f   ScriptFuns.obj
 0001:00055bf0       ?LuaGetPlayerRestAttributePoint@@YAHPAUlua_State@@@Z 10056bf0 f   ScriptFuns.obj
 0001:00055c50       ?LuaGetPlayerRestSkillPoint@@YAHPAUlua_State@@@Z 10056c50 f   ScriptFuns.obj
 0001:00055cb0       ?LuaGetPlayerLucky@@YAHPAUlua_State@@@Z 10056cb0 f   ScriptFuns.obj
 0001:00055d10       ?LuaGetPlayerEngergy@@YAHPAUlua_State@@@Z 10056d10 f   ScriptFuns.obj
 0001:00055da0       ?LuaGetPlayerDexterity@@YAHPAUlua_State@@@Z 10056da0 f   ScriptFuns.obj
 0001:00055e30       ?LuaGetPlayerStrength@@YAHPAUlua_State@@@Z 10056e30 f   ScriptFuns.obj
 0001:00055ec0       ?LuaGetPlayerVitality@@YAHPAUlua_State@@@Z 10056ec0 f   ScriptFuns.obj
 0001:00055f50       ?LuaSetPlayerEngergy@@YAHPAUlua_State@@@Z 10056f50 f   ScriptFuns.obj
 0001:00055fa0       ?LuaSetPlayerDexterity@@YAHPAUlua_State@@@Z 10056fa0 f   ScriptFuns.obj
 0001:00055ff0       ?LuaSetPlayerStrength@@YAHPAUlua_State@@@Z 10056ff0 f   ScriptFuns.obj
 0001:00056040       ?LuaSetPlayerVitality@@YAHPAUlua_State@@@Z 10057040 f   ScriptFuns.obj
 0001:00056090       ?LuaGetTongName@@YAHPAUlua_State@@@Z 10057090 f   ScriptFuns.obj
 0001:00056100       ?LuaTongAddMem@@YAHPAUlua_State@@@Z 10057100 f   ScriptFuns.obj
 0001:00056200       ?LuaGetPlayerCashMoney@@YAHPAUlua_State@@@Z 10057200 f   ScriptFuns.obj
 0001:00056260       ?LuaPlayerPayMoney@@YAHPAUlua_State@@@Z 10057260 f   ScriptFuns.obj
 0001:000562f0       ?LuaPlayerEarnMoney@@YAHPAUlua_State@@@Z 100572f0 f   ScriptFuns.obj
 0001:00056340       ?LuaPlayerExecuteScript@@YAHPAUlua_State@@@Z 10057340 f   ScriptFuns.obj
 0001:00056350       ?LuaSetPlayerChatForbiddenFlag@@YAHPAUlua_State@@@Z 10057350 f   ScriptFuns.obj
 0001:000563b0       ?LuaKickOutPlayer@@YAHPAUlua_State@@@Z 100573b0 f   ScriptFuns.obj
 0001:000564a0       ?LuaKickOutAccount@@YAHPAUlua_State@@@Z 100574a0 f   ScriptFuns.obj
 0001:00056550       ?LuaKickOutSelf@@YAHPAUlua_State@@@Z 10057550 f   ScriptFuns.obj
 0001:000565a0       ?LuaKillNpc@@YAHPAUlua_State@@@Z 100575a0 f   ScriptFuns.obj
 0001:000566b0       ?LuaFindNearNpc@@YAHPAUlua_State@@@Z 100576b0 f   ScriptFuns.obj
 0001:00056730       ?LuaGetNpcID@@YAHPAUlua_State@@@Z 10057730 f   ScriptFuns.obj
 0001:000567d0       ?LuaKillPlayer@@YAHPAUlua_State@@@Z 100577d0 f   ScriptFuns.obj
 0001:000568a0       ?LuaReLoadFile@@YAHPAUlua_State@@@Z 100578a0 f   ScriptFuns.obj
 0001:000568d0       ?LuaGetDataInt@@YAHPAUlua_State@@@Z 100578d0 f   ScriptFuns.obj
 0001:00056930       ?LuaSetDataInt@@YAHPAUlua_State@@@Z 10057930 f   ScriptFuns.obj
 0001:00056980       ?LuaGetDataGroup@@YAHPAUlua_State@@@Z 10057980 f   ScriptFuns.obj
 0001:00056a70       ?LuaAddDataGroup@@YAHPAUlua_State@@@Z 10057a70 f   ScriptFuns.obj
 0001:00056ae0       ?LuaSetDataGroup@@YAHPAUlua_State@@@Z 10057ae0 f   ScriptFuns.obj
 0001:00056bb0       ?LuaFindDataGroupIndex@@YAHPAUlua_State@@@Z 10057bb0 f   ScriptFuns.obj
 0001:00056c20       ?LuaSaveDataFile@@YAHPAUlua_State@@@Z 10057c20 f   ScriptFuns.obj
 0001:00056c30       ?LuaArrangeData@@YAHPAUlua_State@@@Z 10057c30 f   ScriptFuns.obj
 0001:00056c40       ?LuaSetFightState@@YAHPAUlua_State@@@Z 10057c40 f   ScriptFuns.obj
 0001:00056cc0       ?LuaGetFightState@@YAHPAUlua_State@@@Z 10057cc0 f   ScriptFuns.obj
 0001:00056d20       ?LuaSetLevel@@YAHPAUlua_State@@@Z 10057d20 f   ScriptFuns.obj
 0001:00056e40       ?LuaGetLevel@@YAHPAUlua_State@@@Z 10057e40 f   ScriptFuns.obj
 0001:00056eb0       ?LuaGetNpcLevel@@YAHPAUlua_State@@@Z 10057eb0 f   ScriptFuns.obj
 0001:00056f30       ?LuaGetNpcSeries@@YAHPAUlua_State@@@Z 10057f30 f   ScriptFuns.obj
 0001:00056fb0       ?LuaGetNpcLife@@YAHPAUlua_State@@@Z 10057fb0 f   ScriptFuns.obj
 0001:00057090       ?LuaGetBossType@@YAHPAUlua_State@@@Z 10058090 f   ScriptFuns.obj
 0001:00057120       ?LuaSetBossType@@YAHPAUlua_State@@@Z 10058120 f   ScriptFuns.obj
 0001:00057190       ?LuaSetNpcLifeTime@@YAHPAUlua_State@@@Z 10058190 f   ScriptFuns.obj
 0001:00057220       ?LuaSetNpcDamageExpand@@YAHPAUlua_State@@@Z 10058220 f   ScriptFuns.obj
 0001:000573e0       ?LuaSetNpcDamageReturn@@YAHPAUlua_State@@@Z 100583e0 f   ScriptFuns.obj
 0001:00057490       ?LuaSetNpcAIMode@@YAHPAUlua_State@@@Z 10058490 f   ScriptFuns.obj
 0001:00057500       ?LuaSetNpcCancelAppendSkillDamage@@YAHPAUlua_State@@@Z 10058500 f   ScriptFuns.obj
 0001:00057570       ?LuaGetNpcLifeTime@@YAHPAUlua_State@@@Z 10058570 f   ScriptFuns.obj
 0001:000575e0       ?LuaUseTownPortal@@YAHPAUlua_State@@@Z 100585e0 f   ScriptFuns.obj
 0001:00057680       ?LuaReturnFromTownPortal@@YAHPAUlua_State@@@Z 10058680 f   ScriptFuns.obj
 0001:000576c0       ?GetPlayerIndex@@YAHPAUlua_State@@@Z 100586c0 f   ScriptFuns.obj
 0001:00057740       ?GetObjIndex@@YAHPAUlua_State@@@Z 10058740 f   ScriptFuns.obj
 0001:000577a0       ?LuaMessage@@YAHPAUlua_State@@@Z 100587a0 f   ScriptFuns.obj
 0001:000577c0       ?LuaAddPlayerWayPoint@@YAHPAUlua_State@@@Z 100587c0 f   ScriptFuns.obj
 0001:000578f0       ?LuaGetPlayerWayPoint@@YAHPAUlua_State@@@Z 100588f0 f   ScriptFuns.obj
 0001:000579b0       ?LuaGetStationName@@YAHPAUlua_State@@@Z 100589b0 f   ScriptFuns.obj
 0001:00057a70       ?LuaGetPriceToStation@@YAHPAUlua_State@@@Z 10058a70 f   ScriptFuns.obj
 0001:00057ac0       ?LuaGetAllStationCount@@YAHPAUlua_State@@@Z 10058ac0 f   ScriptFuns.obj
 0001:00057b00       ?LuaGetStationPos@@YAHPAUlua_State@@@Z 10058b00 f   ScriptFuns.obj
 0001:00057c90       ?LuaGetWayPointName@@YAHPAUlua_State@@@Z 10058c90 f   ScriptFuns.obj
 0001:00057d50       ?LuaGetWayPointPos@@YAHPAUlua_State@@@Z 10058d50 f   ScriptFuns.obj
 0001:00057e20       ?LuaGetRank@@YAHPAUlua_State@@@Z 10058e20 f   ScriptFuns.obj
 0001:00057e90       ?LuaSetRank@@YAHPAUlua_State@@@Z 10058e90 f   ScriptFuns.obj
 0001:00057f00       ?LuaSetExpandRank@@YAHPAUlua_State@@@Z 10058f00 f   ScriptFuns.obj
 0001:00057fa0       ?LuaGetExpandRank@@YAHPAUlua_State@@@Z 10058fa0 f   ScriptFuns.obj
 0001:00058040       ?LuaSetLockMoveItem@@YAHPAUlua_State@@@Z 10059040 f   ScriptFuns.obj
 0001:000580a0       ?LuaSetObjPropState@@YAHPAUlua_State@@@Z 100590a0 f   ScriptFuns.obj
 0001:00058100       ?LuaDeleteObj@@YAHPAUlua_State@@@Z 10059100 f   ScriptFuns.obj
 0001:00058130       ?LuaGetServerName@@YAHPAUlua_State@@@Z 10059130 f   ScriptFuns.obj
 0001:00058190       ?LuaGetWayPointFightState@@YAHPAUlua_State@@@Z 10059190 f   ScriptFuns.obj
 0001:00058230       ?LuaSetMissionValue@@YAHPAUlua_State@@@Z 10059230 f   ScriptFuns.obj
 0001:000582a0       ?LuaGetMissionValue@@YAHPAUlua_State@@@Z 100592a0 f   ScriptFuns.obj
 0001:00058330       ?LuaSetGlobalMissionValue@@YAHPAUlua_State@@@Z 10059330 f   ScriptFuns.obj
 0001:00058380       ?LuaGetGlobalMissionValue@@YAHPAUlua_State@@@Z 10059380 f   ScriptFuns.obj
 0001:000583f0       ?LuaInitMission@@YAHPAUlua_State@@@Z 100593f0 f   ScriptFuns.obj
 0001:00058750       ??0?$_KMissionPlayerArray@UTMissionPlayerInfo@@$0BJA@@@QAE@XZ 10059750 f i ScriptFuns.obj
 0001:00058810       ??1?$_KMissionPlayerArray@UTMissionPlayerInfo@@$0BJA@@@QAE@XZ 10059810 f i ScriptFuns.obj
 0001:00058870       ??1?$KLinkArrayTemplate@UTMissionPlayerInfo@@$0BJA@@@QAE@XZ 10059870 f i ScriptFuns.obj
 0001:000588d0       ?LuaIsMissionActive@@YAHPAUlua_State@@@Z 100598d0 f   ScriptFuns.obj
 0001:00058b30       ?LuaRunMission@@YAHPAUlua_State@@@Z 10059b30 f   ScriptFuns.obj
 0001:00058dd0       ?LuaCloseMission@@YAHPAUlua_State@@@Z 10059dd0 f   ScriptFuns.obj
 0001:00059110       ?LuaStopMissionTimer@@YAHPAUlua_State@@@Z 1005a110 f   ScriptFuns.obj
 0001:00059360       ?LuaStartMissionTimer@@YAHPAUlua_State@@@Z 1005a360 f   ScriptFuns.obj
 0001:000595d0       ?LuaSetDeathRevivalPos@@YAHPAUlua_State@@@Z 1005a5d0 f   ScriptFuns.obj
 0001:000596e0       ?LuaAddMissionPlayer@@YAHPAUlua_State@@@Z 1005a6e0 f   ScriptFuns.obj
 0001:00059a90       ?LuaAddMissionNpc@@YAHPAUlua_State@@@Z 1005aa90 f   ScriptFuns.obj
 0001:00059cc0       ?LuaRemoveMissionNpc@@YAHPAUlua_State@@@Z 1005acc0 f   ScriptFuns.obj
 0001:00059ef0       ?LuaRevivalAllNpc@@YAHPAUlua_State@@@Z 1005aef0 f   ScriptFuns.obj
 0001:00059f20       ?LuaRemoveMissionPlayer@@YAHPAUlua_State@@@Z 1005af20 f   ScriptFuns.obj
 0001:0005a230       ?LuaMissionMsg2Group@@YAHPAUlua_State@@@Z 1005b230 f   ScriptFuns.obj
 0001:0005a490       ?LuaMissionMsg2All@@YAHPAUlua_State@@@Z 1005b490 f   ScriptFuns.obj
 0001:0005a6c0       ?LuaSendReport@@YAHPAUlua_State@@@Z 1005b6c0 f   ScriptFuns.obj
 0001:0005abd0       ?LuaMissionPlayerCount@@YAHPAUlua_State@@@Z 1005bbd0 f   ScriptFuns.obj
 0001:0005add0       ?LuaMissionGroupPlayerCount@@YAHPAUlua_State@@@Z 1005bdd0 f   ScriptFuns.obj
 0001:0005b010       ?LuaSetPlayerDeathScript@@YAHPAUlua_State@@@Z 1005c010 f   ScriptFuns.obj
 0001:0005b060       ?LuaSetPlayerDamageScript@@YAHPAUlua_State@@@Z 1005c060 f   ScriptFuns.obj
 0001:0005b0b0       ?LuaNpcIndexToPlayerIndex@@YAHPAUlua_State@@@Z 1005c0b0 f   ScriptFuns.obj
 0001:0005b140       ?LuaGetMissionPlayer_PlayerIndex@@YAHPAUlua_State@@@Z 1005c140 f   ScriptFuns.obj
 0001:0005b370       ?LuaGetMissionPlayer_DataIndex@@YAHPAUlua_State@@@Z 1005c370 f   ScriptFuns.obj
 0001:0005b5e0       ?LuaGetMissionPlayer_NameID@@YAHPAUlua_State@@@Z 1005c5e0 f   ScriptFuns.obj
 0001:0005b800       ?LuaSetMissionPlayerParam@@YAHPAUlua_State@@@Z 1005c800 f   ScriptFuns.obj
 0001:0005ba50       ?LuaGetMissionPlayerParam@@YAHPAUlua_State@@@Z 1005ca50 f   ScriptFuns.obj
 0001:0005bc90       ?LuaGetPlayerMissionGroup@@YAHPAUlua_State@@@Z 1005cc90 f   ScriptFuns.obj
 0001:0005beb0       ?LuaSetPlayerRevivalOptionWhenLogout@@YAHPAUlua_State@@@Z 1005ceb0 f   ScriptFuns.obj
 0001:0005bf30       ?LuaSetPlayerPKMode@@YAHPAUlua_State@@@Z 1005cf30 f   ScriptFuns.obj
 0001:0005bfc0       ?LuaSetPlayerPKValue@@YAHPAUlua_State@@@Z 1005cfc0 f   ScriptFuns.obj
 0001:0005c030       ?LuaGetPlayerPKValue@@YAHPAUlua_State@@@Z 1005d030 f   ScriptFuns.obj
 0001:0005c0a0       ?LuaGetPlayerNpcIndex@@YAHPAUlua_State@@@Z 1005d0a0 f   ScriptFuns.obj
 0001:0005c100       ?LuaShowLadder@@YAHPAUlua_State@@@Z 1005d100 f   ScriptFuns.obj
 0001:0005c200       ?LuaMakeLove@@YAHPAUlua_State@@@Z 1005d200 f   ScriptFuns.obj
 0001:0005c290       ?LuaAddLeadExp@@YAHPAUlua_State@@@Z 1005d290 f   ScriptFuns.obj
 0001:0005c2f0       ?LuaGetLeadLevel@@YAHPAUlua_State@@@Z 1005d2f0 f   ScriptFuns.obj
 0001:0005c350       ?LuaAddMagicPoint@@YAHPAUlua_State@@@Z 1005d350 f   ScriptFuns.obj
 0001:0005c410       ?LuaGetMagicPoint@@YAHPAUlua_State@@@Z 1005d410 f   ScriptFuns.obj
 0001:0005c460       ?LuaAddPropPoint@@YAHPAUlua_State@@@Z 1005d460 f   ScriptFuns.obj
 0001:0005c500       ?LuaAddExtPoint@@YAHPAUlua_State@@@Z 1005d500 f   ScriptFuns.obj
 0001:0005c5b0       ?LuaPayExtPoint@@YAHPAUlua_State@@@Z 1005d5b0 f   ScriptFuns.obj
 0001:0005c640       ?LuaGetExtPoint@@YAHPAUlua_State@@@Z 1005d640 f   ScriptFuns.obj
 0001:0005c6b0       ?LuaGetRestPropPoint@@YAHPAUlua_State@@@Z 1005d6b0 f   ScriptFuns.obj
 0001:0005c710       ?LuaRevivePlayer@@YAHPAUlua_State@@@Z 1005d710 f   ScriptFuns.obj
 0001:0005c750       ?LuaGetAccount@@YAHPAUlua_State@@@Z 1005d750 f   ScriptFuns.obj
 0001:0005c7a0       ?LuaPutLog@@YAHPAUlua_State@@@Z 1005d7a0 f   ScriptFuns.obj
 0001:0005c800       ?LuaQueryChannel@@YAHPAUlua_State@@@Z 1005d800 f   ScriptFuns.obj
 0001:0005c840       ?LuaSetTransLife@@YAHPAUlua_State@@@Z 1005d840 f   ScriptFuns.obj
 0001:0005c970       ?LuaGetOnlineTime@@YAHPAUlua_State@@@Z 1005d970 f   ScriptFuns.obj
 0001:0005c9e0       ?LuaSetOnlineTime@@YAHPAUlua_State@@@Z 1005d9e0 f   ScriptFuns.obj
 0001:0005ca40       ?LuaHaveCode@@YAHPAUlua_State@@@Z 1005da40 f   ScriptFuns.obj
 0001:0005cac0       ?LuaMsgToGameMaster@@YAHPAUlua_State@@@Z 1005dac0 f   ScriptFuns.obj
 0001:0005cb50       ?LuaMsgToIP@@YAHPAUlua_State@@@Z 1005db50 f   ScriptFuns.obj
 0001:0005cc10       ?LuaGetPlayerInfo@@YAHPAUlua_State@@@Z 1005dc10 f   ScriptFuns.obj
 0001:0005cd10       ?LuaGetIP@@YAHPAUlua_State@@@Z 1005dd10 f   ScriptFuns.obj
 0001:0005cda0       ?LuaSetDeathPunish@@YAHPAUlua_State@@@Z 1005dda0 f   ScriptFuns.obj
 0001:0005ce50       ?LuaHideNpc@@YAHPAUlua_State@@@Z 1005de50 f   ScriptFuns.obj
 0001:0005cf20       ?LuaAddTrap@@YAHPAUlua_State@@@Z 1005df20 f   ScriptFuns.obj
 0001:0005cfe0       ?LuaOpenDice@@YAHPAUlua_State@@@Z 1005dfe0 f   ScriptFuns.obj
 0001:0005d0a0       ?LuaFinishDice@@YAHPAUlua_State@@@Z 1005e0a0 f   ScriptFuns.obj
 0001:0005d1c0       ?LuaPlayMusic@@YAHPAUlua_State@@@Z 1005e1c0 f   ScriptFuns.obj
 0001:0005d270       ?LuaFadeInMusic@@YAHPAUlua_State@@@Z 1005e270 f   ScriptFuns.obj
 0001:0005d280       ?LuaFadeOutMusic@@YAHPAUlua_State@@@Z 1005e280 f   ScriptFuns.obj
 0001:0005d290       ?g_GetGameScriptFunNum@@YAHXZ 1005e290 f   ScriptFuns.obj
 0001:0005d2a0       ?g_GetWorldScriptFunNum@@YAHXZ 1005e2a0 f   ScriptFuns.obj
 0001:0005d2b0       ??0?$KLinkArrayTemplate@VKTimerTaskFun@@$03@@QAE@XZ 1005e2b0 f i ScriptFuns.obj
 0001:0005d380       ?GetData@?$KLinkArrayTemplate@VKTimerTaskFun@@$03@@QAEPAVKTimerTaskFun@@K@Z 1005e380 f i ScriptFuns.obj
 0001:0005d3a0       ??0?$KLinkArrayTemplate@UTMissionPlayerInfo@@$0BJA@@@QAE@XZ 1005e3a0 f i ScriptFuns.obj
 0001:0005d4d0       ??0KScriptValueSet@@QAE@XZ 1005e4d0 f   KScriptValueSet.obj
 0001:0005d520       ??_EKScriptValueSet@@UAEPAXI@Z 1005e520 f i KScriptValueSet.obj
 0001:0005d520       ??_GKScriptValueSet@@UAEPAXI@Z 1005e520 f i KScriptValueSet.obj
 0001:0005d540       ??1KScriptValueSet@@UAE@XZ 1005e540 f   KScriptValueSet.obj
 0001:0005d560       ?Load@KScriptValueSet@@QAEHPAD@Z 1005e560 f   KScriptValueSet.obj
 0001:0005d810       ??_ETStringValueNode@@UAEPAXI@Z 1005e810 f i KScriptValueSet.obj
 0001:0005d810       ??_GTStringValueNode@@UAEPAXI@Z 1005e810 f i KScriptValueSet.obj
 0001:0005d830       ??1TStringValueNode@@UAE@XZ 1005e830 f i KScriptValueSet.obj
 0001:0005d840       ??_GTIntegerValueNode@@UAEPAXI@Z 1005e840 f i KScriptValueSet.obj
 0001:0005d840       ??_ETIntegerValueNode@@UAEPAXI@Z 1005e840 f i KScriptValueSet.obj
 0001:0005d860       ??1TIntegerValueNode@@UAE@XZ 1005e860 f i KScriptValueSet.obj
 0001:0005d870       ?Save@KScriptValueSet@@QAEHPAD@Z 1005e870 f   KScriptValueSet.obj
 0001:0005d970       ?SetValue@KScriptValueSet@@QAEHPAD0@Z 1005e970 f   KScriptValueSet.obj
 0001:0005d9d0       ?SetValue@KScriptValueSet@@QAEHPADH@Z 1005e9d0 f   KScriptValueSet.obj
 0001:0005da10       ?GetValue@KScriptValueSet@@QAEHPAD0@Z 1005ea10 f   KScriptValueSet.obj
 0001:0005da80       ?GetValue@KScriptValueSet@@QAEHPADPAH@Z 1005ea80 f   KScriptValueSet.obj
 0001:0005dab0       ?AddValue@KScriptValueSet@@AAEXPAD0@Z 1005eab0 f   KScriptValueSet.obj
 0001:0005db60       ?AddValue@KScriptValueSet@@AAEXPADH@Z 1005eb60 f   KScriptValueSet.obj
 0001:0005dbf0       ?SearchValue@KScriptValueSet@@AAEPAVKNode@@PADH@Z 1005ebf0 f   KScriptValueSet.obj
 0001:0005ddd0       ??M@YAHVKSortScriptNode@@0@Z 1005edd0 f   KSortScript.obj
 0001:0005dde0       ??8@YAHVKSortScriptNode@@0@Z 1005ede0 f   KSortScript.obj
 0001:0005ddf0       ?g_IniScriptEngine@@YAKXZ  1005edf0 f   KSortScript.obj
 0001:0005deb0       ?g_GetScript@@YAPBVKScript@@K@Z 1005eeb0 f   KSortScript.obj
 0001:0005df40       ?g_GetScript@@YAPBVKScript@@PBD@Z 1005ef40 f   KSortScript.obj
 0001:0005df60       ?LoadScriptInDirectory@@YAXPAD0@Z 1005ef60 f   KSortScript.obj
 0001:0005e3f0       ?UnLoadScript@@YAXK@Z      1005f3f0 f   KSortScript.obj
 0001:0005e4e0       ?ReLoadScript@@YAHPBD@Z    1005f4e0 f   KSortScript.obj
 0001:0005e560       ?ReLoadAllScript@@YAKXZ    1005f560 f   KSortScript.obj
 0001:0005e5c0       ?Insert@?$BinSTree@VKSortScriptNode@@@@QAEXABVKSortScriptNode@@@Z 1005f5c0 f i KSortScript.obj
 0001:0005e6c0       ?DeleteTree@?$BinSTree@VKSortScriptNode@@@@AAEXPAV?$TreeNode@VKSortScriptNode@@@@@Z 1005f6c0 f i KSortScript.obj
 0001:0005e710       _CoreGetServerShell        1005f710 f   CoreServerShell.obj
 0001:0005e720       ?Release@CoreServerShell@@UAEXXZ 1005f720 f   CoreServerShell.obj
 0001:0005e730       ?GetLoopRate@CoreServerShell@@UAEHXZ 1005f730 f   CoreServerShell.obj
 0001:0005e740       ?GetConnectInfo@CoreServerShell@@UAEHPAUKCoreConnectInfo@@@Z 1005f740 f   CoreServerShell.obj
 0001:0005e760       ?AddCharacter@CoreServerShell@@UAEHHKPAXPAU_GUID@@EE@Z 1005f760 f   CoreServerShell.obj
 0001:0005e8b0       ?PlayerDbLoading@CoreServerShell@@UAE_NHHAAHAAI@Z 1005f8b0 f   CoreServerShell.obj
 0001:0005e930       ?AddPlayerToWorld@CoreServerShell@@UAEXH@Z 1005f930 f   CoreServerShell.obj
 0001:0005e960       ?ProcessClientMessage@CoreServerShell@@UAEXHPBDH@Z 1005f960 f   CoreServerShell.obj
 0001:0005e980       ?ProcessNewClientMessage@CoreServerShell@@UAEXPAUIClient@@KKHPBDH@Z 1005f980 f   CoreServerShell.obj
 0001:0005e9b0       ?SendNetMsgToTransfer@CoreServerShell@@UAEXPAUIClient@@@Z 1005f9b0 f   CoreServerShell.obj
 0001:0005e9d0       ?SendNetMsgToChat@CoreServerShell@@UAEXPAUIClient@@@Z 1005f9d0 f   CoreServerShell.obj
 0001:0005e9f0       ?SendNetMsgToTong@CoreServerShell@@UAEXPAUIClient@@@Z 1005f9f0 f   CoreServerShell.obj
 0001:0005ea10       ?ProcessBroadcastMessage@CoreServerShell@@UAEXPBDH@Z 1005fa10 f   CoreServerShell.obj
 0001:0005ea30       ?ProcessExecuteMessage@CoreServerShell@@UAEXPBDH@Z 1005fa30 f   CoreServerShell.obj
 0001:0005ea50       ?ClientDisconnect@CoreServerShell@@UAEXH@Z 1005fa50 f   CoreServerShell.obj
 0001:0005ea70       ?RemoveQuitingPlayer@CoreServerShell@@UAEXH@Z 1005fa70 f   CoreServerShell.obj
 0001:0005ea90       ?GetGameData@CoreServerShell@@UAEHIIH@Z 1005fa90 f   CoreServerShell.obj
 0001:0005fd90       ?OperationRequest@CoreServerShell@@UAEHIIH@Z 10060d90 f   CoreServerShell.obj
 0001:0005ffa0       ?OnLunch@CoreServerShell@@AAEHPAX@Z 10060fa0 f   CoreServerShell.obj
 0001:0005fff0       ?OnShutdown@CoreServerShell@@AAEHXZ 10060ff0 f   CoreServerShell.obj
 0001:00060000       ?Breathe@CoreServerShell@@UAEHXZ 10061000 f   CoreServerShell.obj
 0001:00060040       ?CheckProtocolSize@CoreServerShell@@UAE_NPBDH@Z 10061040 f   CoreServerShell.obj
 0001:000600a0       ?AttachPlayer@CoreServerShell@@UAEHKPAU_GUID@@@Z 100610a0 f   CoreServerShell.obj
 0001:000600c0       ?SavePlayerDataAtOnce@CoreServerShell@@UAEPAXH@Z 100610c0 f   CoreServerShell.obj
 0001:00060110       ?IsCharacterQuiting@CoreServerShell@@UAE_NH@Z 10061110 f   CoreServerShell.obj
 0001:00060150       ?IsPlayerLoginTimeOut@CoreServerShell@@UAE_NH@Z 10061150 f   CoreServerShell.obj
 0001:00060180       ?RemovePlayerLoginTimeOut@CoreServerShell@@UAEXH@Z 10061180 f   CoreServerShell.obj
 0001:000601d0       ?AddTempTaskValue@CoreServerShell@@UAEHHPBD@Z 100611d0 f   CoreServerShell.obj
 0001:00060210       ?GetPlayerIndexByGuid@CoreServerShell@@UAEXPAU_GUID@@PAH1@Z 10061210 f   CoreServerShell.obj
 0001:00060270       ?PreparePlayerForExchange@CoreServerShell@@UAEPAXH@Z 10061270 f   CoreServerShell.obj
 0001:000602b0       ?IsPlayerExchangingServer@CoreServerShell@@UAE_NH@Z 100612b0 f   CoreServerShell.obj
 0001:000602f0       ?RemovePlayerForExchange@CoreServerShell@@UAEXH@Z 100612f0 f   CoreServerShell.obj
 0001:00060310       ?GetGuid@CoreServerShell@@UAEXHPAX@Z 10061310 f   CoreServerShell.obj
 0001:00060360       ?GetExchangeMap@CoreServerShell@@UAEKH@Z 10061360 f   CoreServerShell.obj
 0001:000603a0       ?RecoverPlayerExchange@CoreServerShell@@UAEXH@Z 100613a0 f   CoreServerShell.obj
 0001:00060400       ?SetSaveStatus@CoreServerShell@@UAEXHI@Z 10061400 f   CoreServerShell.obj
 0001:00060430       ?GetSaveStatus@CoreServerShell@@UAEIH@Z 10061430 f   CoreServerShell.obj
 0001:00060460       ?CanSave@CoreServerShell@@UAEHH@Z 10061460 f   CoreServerShell.obj
 0001:000604a0       ?IsSaveCoinStatus@CoreServerShell@@UAEHH@Z 100614a0 f   CoreServerShell.obj
 0001:000604d0       ?DelSaveCoinStatus@CoreServerShell@@UAEXH@Z 100614d0 f   CoreServerShell.obj
 0001:00060500       ?PreparePlayerForLoginFailed@CoreServerShell@@UAEXH@Z 10061500 f   CoreServerShell.obj
 0001:00060520       ?GroupChat@CoreServerShell@@UAEHPAUIClient@@KKKEKPBXI@Z 10061520 f   CoreServerShell.obj
 0001:00060a50       ?SetLadder@CoreServerShell@@UAEXPAXI@Z 10061a50 f   CoreServerShell.obj
 0001:00060a70       ?PayForSpeech@CoreServerShell@@UAEHHH@Z 10061a70 f   CoreServerShell.obj
 0001:00060c90       ??0KMagicDesc@@QAE@XZ      10061c90 f   KMagicDesc.obj
 0001:00060cb0       ??1KMagicDesc@@QAE@XZ      10061cb0 f   KMagicDesc.obj
 0001:00060cc0       ?Init@KMagicDesc@@QAEHXZ   10061cc0 f   KMagicDesc.obj
 0001:00060cd0       ?GetDesc@KMagicDesc@@QAEPBDPAX@Z 10061cd0 f   KMagicDesc.obj
 0001:00061360       ?g_MagicID2String@@YAPBDH@Z 10062360 f   KMagicDesc.obj
 0001:00061390       ?g_String2MagicID@@YAHPAD@Z 10062390 f   KMagicDesc.obj
 0001:00061400       ?TextGMFilter@@YAHHPBDH@Z  10062400 f   KGMCommand.obj
 0001:00061410       ?TextMsgProcessGMCmd@@YAHHPBDH@Z 10062410 f   KGMCommand.obj
 0001:00061420       ?ProcessGMCommand@@YAHHW4EGameMasterCommand@@PBDH@Z 10062420 f   KGMCommand.obj
 0001:00061430       ?GetNextUnit@@YAHPBDDHPAD@Z 10062430 f   KGMCommand.obj
 0001:00061490       ?Activate@KMission@@QAEHXZ 10062490 f   KMission.obj
 0001:00061510       ?ExecuteScript@KMission@@QAEHPAD0H@Z 10062510 f   KMission.obj
 0001:00061550       ?ExecuteScript@KMission@@QAEHKPADH@Z 10062550 f   KMission.obj
 0001:00061630       ?g_MissionTimerCallBackFun@@YAHPAXPAD@Z 10062630 f   KMission.obj
 0001:000616a0       ?g_GetPriceToStation@@YAHHH@Z 100626a0 f   KTaskFuns.obj
 0001:00061740       ??0KTimerTaskFun@@QAE@XZ   10062740 f   KTaskFuns.obj
 0001:000617b0       ?Init@KTimerTaskFun@@SAHXZ 100627b0 f   KTaskFuns.obj
 0001:000617f0       ?Activate@KTimerTaskFun@@QAEHP6AHPAXPAD@Z@Z 100627f0 f   KTaskFuns.obj
 0001:00061860       ?SaveTask@KTimerTaskFun@@UAEHPAVKPlayer@@@Z 10062860 f   KTaskFuns.obj
 0001:000618c0       ?LoadTask@KTimerTaskFun@@UAEHPAVKPlayer@@@Z 100628c0 f   KTaskFuns.obj
 0001:00061920       ?GetTimerTaskScript@KTimerTaskFun@@QAEXPADGI@Z 10062920 f   KTaskFuns.obj
 0001:000619a0       ?g_PlayerTimerCallBackFun@@YAHPAXPAD@Z 100629a0 f   KTaskFuns.obj
 0001:00061a10       ??0KLadder@@QAE@XZ         10062a10 f   KLadder.obj
 0001:00061a30       ??1KLadder@@QAE@XZ         10062a30 f   KLadder.obj
 0001:00061a40       ?Init@KLadder@@QAEHPAXI@Z  10062a40 f   KLadder.obj
 0001:00061a70       ?TopTenFacMasterHand@KLadder@@QAEPBUTRoleList@@H@Z 10062a70 f   KLadder.obj
 0001:00061a90       ?TopTenFacRich@KLadder@@QAEPBUTRoleList@@H@Z 10062a90 f   KLadder.obj
 0001:00061ab0       ?TopTenKiller@KLadder@@QAEPBUTRoleList@@XZ 10062ab0 f   KLadder.obj
 0001:00061ac0       ?TopTenMasterHand@KLadder@@QAEPBUTRoleList@@XZ 10062ac0 f   KLadder.obj
 0001:00061ad0       ?TopTenRich@KLadder@@QAEPBUTRoleList@@XZ 10062ad0 f   KLadder.obj
 0001:00061ae0       ?GetTopTen@KLadder@@QAEPBUTRoleList@@K@Z 10062ae0 f   KLadder.obj
 0001:00061b40       ?GetGameTime@KSubWorldSet@@QAEHXZ 10062b40 f i stdafx.obj
 0001:00061b50       ?GetGameVersion@KSubWorldSet@@QAEHXZ 10062b50 f i stdafx.obj
 0001:00061b60       ??4KSubWorldSet@@QAEAAV0@ABV0@@Z 10062b60 f i stdafx.obj
 0001:00061b80       _CloseHandle@4             10062b80 f   kernel32:KERNEL32.dll
 0001:00061b86       _WriteFile@20              10062b86 f   kernel32:KERNEL32.dll
 0001:00061b8c       _SetFilePointer@16         10062b8c f   kernel32:KERNEL32.dll
 0001:00061b92       _CreateFileA@28            10062b92 f   kernel32:KERNEL32.dll
 0001:00061b98       _GetTickCount@0            10062b98 f   kernel32:KERNEL32.dll
 0001:00061b9e       _FileTimeToSystemTime@8    10062b9e f   kernel32:KERNEL32.dll
 0001:00061ba4       _LocalFileTimeToFileTime@8 10062ba4 f   kernel32:KERNEL32.dll
 0001:00061baa       _SystemTimeToFileTime@8    10062baa f   kernel32:KERNEL32.dll
 0001:00061bb0       _GetComputerNameA@8        10062bb0 f   kernel32:KERNEL32.dll
 0001:00061bb6       _lua_tostring              10062bb6 f   lualibdll:LuaLibDll.dll
 0001:00061bbc       _lua_isstring              10062bbc f   lualibdll:LuaLibDll.dll
 0001:00061bc2       _lua_tonumber              10062bc2 f   lualibdll:LuaLibDll.dll
 0001:00061bc8       _lua_isnumber              10062bc8 f   lualibdll:LuaLibDll.dll
 0001:00061bce       _lua_typename              10062bce f   lualibdll:LuaLibDll.dll
 0001:00061bd4       _lua_gettop                10062bd4 f   lualibdll:LuaLibDll.dll
 0001:00061bda       _lua_pushnumber            10062bda f   lualibdll:LuaLibDll.dll
 0001:00061be0       _lua_type                  10062be0 f   lualibdll:LuaLibDll.dll
 0001:00061be6       _lua_getglobal             10062be6 f   lualibdll:LuaLibDll.dll
 0001:00061bec       _lua_pushstring            10062bec f   lualibdll:LuaLibDll.dll
 0001:00061bf2       _lua_rawget                10062bf2 f   lualibdll:LuaLibDll.dll
 0001:00061bf8       _lua_dofile                10062bf8 f   lualibdll:LuaLibDll.dll
 0001:00061bfe       _lua_pushnil               10062bfe f   lualibdll:LuaLibDll.dll
 0001:00061c04       _inet_addr@4               10062c04 f   Ws2_32:WS2_32.dll
 0001:00061c0a       ?g_Random@@YAII@Z          10062c0a f   engine:Engine.dll
 0001:00061c10       ?g_FileName2Id@@YAKPAD@Z   10062c10 f   engine:Engine.dll
 0001:00061c16       ?GetString@KTabFile@@UAEHHPAD00KH@Z 10062c16 f   engine:Engine.dll
 0001:00061c1c       ?GetInteger@KTabFile@@UAEHHPADHPAHH@Z 10062c1c f   engine:Engine.dll
 0001:00061c22       ??1KTabFile@@UAE@XZ        10062c22 f   engine:Engine.dll
 0001:00061c28       ?g_DebugLog@@YAXPADZZ      10062c28 f   engine:Engine.dll
 0001:00061c2e       ?Load@KTabFile@@UAEHPAD@Z  10062c2e f   engine:Engine.dll
 0001:00061c34       ??0KTabFile@@QAE@XZ        10062c34 f   engine:Engine.dll
 0001:00061c3a       ??1KLinkArray@@QAE@XZ      10062c3a f   engine:Engine.dll
 0001:00061c40       ?Insert@KLinkArray@@QAEXH@Z 10062c40 f   engine:Engine.dll
 0001:00061c46       ?Init@KLinkArray@@QAEXH@Z  10062c46 f   engine:Engine.dll
 0001:00061c4c       ?Remove@KLinkArray@@QAEXH@Z 10062c4c f   engine:Engine.dll
 0001:00061c52       ?SafeCallEnd@KLuaScript@@QAEXH@Z 10062c52 f   engine:Engine.dll
 0001:00061c58       ?SafeCallBegin@KLuaScript@@QAEXPAH@Z 10062c58 f   engine:Engine.dll
 0001:00061c5e       ?KSG_StringSkipSymbol@@YA_NPAPBDH@Z 10062c5e f   engine:Engine.dll
 0001:00061c64       ?KSG_StringGetInt@@YAHPAPBDH@Z 10062c64 f   engine:Engine.dll
 0001:00061c6a       ?GetString@KIniFile@@QAEHPBD00PADK@Z 10062c6a f   engine:Engine.dll
 0001:00061c70       ?GetInteger@KIniFile@@QAEHPBD0HPAH@Z 10062c70 f   engine:Engine.dll
 0001:00061c76       ??1KIniFile@@QAE@XZ        10062c76 f   engine:Engine.dll
 0001:00061c7c       ?Load@KIniFile@@QAEHPBD@Z  10062c7c f   engine:Engine.dll
 0001:00061c82       ??0KIniFile@@QAE@XZ        10062c82 f   engine:Engine.dll
 0001:00061c88       ?GetString@KTabFile@@UAEHHHPAD0K@Z 10062c88 f   engine:Engine.dll
 0001:00061c8e       ?SetGlobalName@KLuaScript@@QAEXPAD@Z 10062c8e f   engine:Engine.dll
 0001:00061c94       ?Clear@KIniFile@@QAEXXZ    10062c94 f   engine:Engine.dll
 0001:00061c9a       ?g_StrCmp@@YAHPBD0@Z       10062c9a f   engine:Engine.dll
 0001:00061ca0       ?g_StrLower@@YAXPAD@Z      10062ca0 f   engine:Engine.dll
 0001:00061ca6       ?g_StrCpyLen@@YAXPADPBDH@Z 10062ca6 f   engine:Engine.dll
 0001:00061cac       ?GetInteger@KTabFile@@UAEHHHHPAH@Z 10062cac f   engine:Engine.dll
 0001:00061cb2       ?g_StrCpy@@YAXPADPBD@Z     10062cb2 f   engine:Engine.dll
 0001:00061cb8       ?SetScriptName@KLuaScript@@UAEXPAD@Z 10062cb8 f   engine:Engine.dll
 0001:00061cbe       ?RegisterFunction@KLuaScript@@UAEHPADPAX@Z 10062cbe f   engine:Engine.dll
 0001:00061cc4       ?CallFunction@KLuaScript@@UAAHPADH0ZZ 10062cc4 f   engine:Engine.dll
 0001:00061cca       ?Execute@KLuaScript@@UAEHXZ 10062cca f   engine:Engine.dll
 0001:00061cd0       ?Compile@KLuaScript@@UAEHPAD@Z 10062cd0 f   engine:Engine.dll
 0001:00061cd6       ?Load@KLuaScript@@UAEHPAD@Z 10062cd6 f   engine:Engine.dll
 0001:00061cdc       ?Exit@KLuaScript@@UAEXXZ   10062cdc f   engine:Engine.dll
 0001:00061ce2       ?Init@KLuaScript@@UAEHXZ   10062ce2 f   engine:Engine.dll
 0001:00061ce8       ?ExecuteCode@KLuaScript@@QAEHXZ 10062ce8 f   engine:Engine.dll
 0001:00061cee       ?LoadBuffer@KLuaScript@@QAEHPAEK@Z 10062cee f   engine:Engine.dll
 0001:00061cf4       ?RegisterFunctions@KLuaScript@@QAEHQAUTLua_Funcs@@H@Z 10062cf4 f   engine:Engine.dll
 0001:00061cfa       ??0KLuaScript@@QAE@XZ      10062cfa f   engine:Engine.dll
 0001:00061d00       ??1KLuaScript@@UAE@XZ      10062d00 f   engine:Engine.dll
 0001:00061d06       _TEncodeText               10062d06 f   engine:Engine.dll
 0001:00061d0c       ?WriteInteger@KIniFile@@QAEXPBD0H@Z 10062d0c f   engine:Engine.dll
 0001:00061d12       ?WriteString@KIniFile@@QAEXPBD00@Z 10062d12 f   engine:Engine.dll
 0001:00061d18       ?Save@KIniFile@@QAEHPBD@Z  10062d18 f   engine:Engine.dll
 0001:00061d1e       ?g_UnitePathAndName@@YAXPAD00@Z 10062d1e f   engine:Engine.dll
 0001:00061d24       ?g_SetRootPath@@YAXPAD@Z   10062d24 f   engine:Engine.dll
 0001:00061d2a       ??0KPolygon@@QAE@XZ        10062d2a f   engine:Engine.dll
 0001:00061d30       ?Clear@KPolygon@@QAEXXZ    10062d30 f   engine:Engine.dll
 0001:00061d36       ?GetCenterPos@KPolygon@@QAEXPAUtagPOINT@@@Z 10062d36 f   engine:Engine.dll
 0001:00061d3c       ?IsPointInPolygon@KPolygon@@QAEHUtagPOINT@@@Z 10062d3c f   engine:Engine.dll
 0001:00061d42       ?Read@KPakFile@@QAEKPAXI@Z 10062d42 f   engine:Engine.dll
 0001:00061d48       ??1KPakFile@@QAE@XZ        10062d48 f   engine:Engine.dll
 0001:00061d4e       ?Close@KPakFile@@QAEXXZ    10062d4e f   engine:Engine.dll
 0001:00061d54       ?Size@KPakFile@@QAEKXZ     10062d54 f   engine:Engine.dll
 0001:00061d5a       ?Open@KPakFile@@QAEHPBD@Z  10062d5a f   engine:Engine.dll
 0001:00061d60       ??0KPakFile@@QAE@XZ        10062d60 f   engine:Engine.dll
 0001:00061d66       ?Seek@KPakFile@@QAEKHI@Z   10062d66 f   engine:Engine.dll
 0001:00061d6c       ?FindColumn@KTabFile@@UAEHPAD@Z 10062d6c f   engine:Engine.dll
 0001:00061d72       ?g_RandomSeed@@YAXI@Z      10062d72 f   engine:Engine.dll
 0001:00061d78       ?g_FindDebugWindow@@YAPAUHWND__@@PAD0@Z 10062d78 f   engine:Engine.dll
 0001:00061d7e       ?GetRect@KIniFile@@QAEXPBD0PAUtagRECT@@@Z 10062d7e f   engine:Engine.dll
 0001:00061d84       ?g_SetFilePath@@YAXPAD@Z   10062d84 f   engine:Engine.dll
 0001:00061d8a       ?FindRow@KTabFile@@UAEHPAD@Z 10062d8a f   engine:Engine.dll
 0001:00061d90       ?GetFloat3@KIniFile@@QAEXPBD0PAM@Z 10062d90 f   engine:Engine.dll
 0001:00061d96       ?GetInteger2@KIniFile@@QAEXPBD0PAH1@Z 10062d96 f   engine:Engine.dll
 0001:00061d9c       ?g_GetFilePath@@YAXPAD@Z   10062d9c f   engine:Engine.dll
 0001:00061da2       ??0KScriptList@@QAE@XZ     10062da2 f   engine:Engine.dll
 0001:00061da8       ??1KScriptList@@QAE@XZ     10062da8 f   engine:Engine.dll
 0001:00061dae       ?g_GetRootPath@@YAXPAD@Z   10062dae f   engine:Engine.dll
 0001:00061db4       ?g_StrCat@@YAXPADPBD@Z     10062db4 f   engine:Engine.dll
 0001:00061dba       ?GetInteger@KTabFile@@UAEHPAD0HPAH@Z 10062dba f   engine:Engine.dll
 0001:00061dc0       ?GetNext@KLinkArray@@QBEHH@Z 10062dc0 f   engine:Engine.dll
 0001:00061dc6       ?GetNextKey@KIniFile@@QAEHPBD0PAD@Z 10062dc6 f   engine:Engine.dll
 0001:00061dcc       ?g_GetFullPath@@YAXPAD0@Z  10062dcc f   engine:Engine.dll
 0001:00061dd2       ?Clear@KTabFile@@UAEXXZ    10062dd2 f   engine:Engine.dll
 0001:00061dd8       ?GetString@KTabFile@@UAEHPAD000K@Z 10062dd8 f   engine:Engine.dll
 0001:00061de0       ??0CBuffer@Win32@OnlineGameLib@@AAE@AAVAllocator@012@I@Z 10062de0 f   common:Buffer.obj
 0001:00061e60       ??1COpaqueUserData@OnlineGameLib@@IAE@XZ 10062e60 f i common:Buffer.obj
 0001:00061e70       ??1CBuffer@Win32@OnlineGameLib@@AAE@XZ 10062e70 f   common:Buffer.obj
 0001:00061ed0       ?GetHeadPack@CBuffer@Win32@OnlineGameLib@@QAEPAV123@I@Z 10062ed0 f   common:Buffer.obj
 0001:00061f20       ?GetNextPack@CBuffer@Win32@OnlineGameLib@@QAEPAV123@XZ 10062f20 f   common:Buffer.obj
 0001:00061f70       ?AddData@CBuffer@Win32@OnlineGameLib@@QAEXQBDI@Z 10062f70 f   common:Buffer.obj
 0001:00062090       ??1CException@Win32@OnlineGameLib@@UAE@XZ 10063090 f i common:Buffer.obj
 0001:00062110       ??_ECException@Win32@OnlineGameLib@@UAEPAXI@Z 10063110 f i common:Buffer.obj
 0001:00062110       ??_GCException@Win32@OnlineGameLib@@UAEPAXI@Z 10063110 f i common:Buffer.obj
 0001:00062130       ??0CException@Win32@OnlineGameLib@@QAE@ABV012@@Z 10063130 f i common:Buffer.obj
 0001:00062270       ?AddData@CBuffer@Win32@OnlineGameLib@@QAEXQBEI@Z 10063270 f   common:Buffer.obj
 0001:00062290       ?AddData@CBuffer@Win32@OnlineGameLib@@QAEXE@Z 10063290 f   common:Buffer.obj
 0001:000622a0       ?SplitBuffer@CBuffer@Win32@OnlineGameLib@@QAEPAV123@I@Z 100632a0 f   common:Buffer.obj
 0001:000622f0       ?AllocateNewBuffer@CBuffer@Win32@OnlineGameLib@@QBEPAV123@XZ 100632f0 f   common:Buffer.obj
 0001:00062300       ?Release@CBuffer@Win32@OnlineGameLib@@QAEXXZ 10063300 f   common:Buffer.obj
 0001:00062410       ??2CBuffer@Win32@OnlineGameLib@@CAPAXII@Z 10063410 f   common:Buffer.obj
 0001:00062420       ??3CBuffer@Win32@OnlineGameLib@@CAXPAXI@Z 10063420 f   common:Buffer.obj
 0001:00062430       ??0Allocator@CBuffer@Win32@OnlineGameLib@@QAE@II@Z 10063430 f   common:Buffer.obj
 0001:00062470       ?OnBufferCreated@Allocator@CBuffer@Win32@OnlineGameLib@@EAEXXZ 10063470 f i common:Buffer.obj
 0001:00062480       ?OnBufferAllocated@Allocator@CBuffer@Win32@OnlineGameLib@@EAEXXZ 10063480 f i common:Buffer.obj
 0001:00062490       ?OnBufferReleased@Allocator@CBuffer@Win32@OnlineGameLib@@EAEXXZ 10063490 f i common:Buffer.obj
 0001:000624a0       ??_GAllocator@CBuffer@Win32@OnlineGameLib@@UAEPAXI@Z 100634a0 f i common:Buffer.obj
 0001:000624a0       ??_EAllocator@CBuffer@Win32@OnlineGameLib@@UAEPAXI@Z 100634a0 f i common:Buffer.obj
 0001:000624c0       ??1Allocator@CBuffer@Win32@OnlineGameLib@@UAE@XZ 100634c0 f   common:Buffer.obj
 0001:00062530       ??1CCriticalSection@Win32@OnlineGameLib@@QAE@XZ 10063530 f i common:Buffer.obj
 0001:00062540       ?Allocate@Allocator@CBuffer@Win32@OnlineGameLib@@QAEPAV234@XZ 10063540 f   common:Buffer.obj
 0001:000626a0       ??1Owner@CCriticalSection@Win32@OnlineGameLib@@QAE@XZ 100636a0 f i common:Buffer.obj
 0001:000626b0       ?Flush@Allocator@CBuffer@Win32@OnlineGameLib@@IAEXXZ 100636b0 f   common:Buffer.obj
 0001:00062750       ?DestroyBuffer@Allocator@CBuffer@Win32@OnlineGameLib@@AAEXPAV234@@Z 10063750 f i common:Buffer.obj
 0001:000627b0       ?Release@Allocator@CBuffer@Win32@OnlineGameLib@@AAEXPAV234@@Z 100637b0 f   common:Buffer.obj
 0001:00062920       ??0CPackager@Win32@OnlineGameLib@@QAE@II@Z 10063920 f   common:Buffer.obj
 0001:00062ab0       ??_ECPackager@Win32@OnlineGameLib@@UAEPAXI@Z 10063ab0 f i common:Buffer.obj
 0001:00062ab0       ??_GCPackager@Win32@OnlineGameLib@@UAEPAXI@Z 10063ab0 f i common:Buffer.obj
 0001:00062ad0       ??1?$map@EPAVCBuffer@Win32@OnlineGameLib@@U?$less@E@std@@V?$allocator@PAVCBuffer@Win32@OnlineGameLib@@@5@@std@@QAE@XZ 10063ad0 f i common:Buffer.obj
 0001:00062b40       ??1CPackager@Win32@OnlineGameLib@@UAE@XZ 10063b40 f   common:Buffer.obj
 0001:00062c70       ?AddData@CPackager@Win32@OnlineGameLib@@QAEXEQBDIK@Z 10063c70 f   common:Buffer.obj
 0001:00062dd0       ?AddData@CPackager@Win32@OnlineGameLib@@QAEXEQBEIK@Z 10063dd0 f   common:Buffer.obj
 0001:00062df0       ?DelData@CPackager@Win32@OnlineGameLib@@QAEXE@Z 10063df0 f   common:Buffer.obj
 0001:00062f10       ?GetHeadPack@CPackager@Win32@OnlineGameLib@@QAEPAVCBuffer@23@EI@Z 10063f10 f   common:Buffer.obj
 0001:00063050       ?GetNextPack@CPackager@Win32@OnlineGameLib@@QAEPAVCBuffer@23@E@Z 10064050 f   common:Buffer.obj
 0001:00063180       ?PackUp@CPackager@Win32@OnlineGameLib@@QAEPAVCBuffer@23@PBXI@Z 10064180 f   common:Buffer.obj
 0001:000632d0       ?Empty@CPackager@Win32@OnlineGameLib@@QAEXXZ 100642d0 f   common:Buffer.obj
 0001:00063400       ??1?$basic_string@DU?$char_traits@D@std@@V?$allocator@D@2@@std@@QAE@XZ 10064400 f i common:Buffer.obj
 0001:00063440       ?assign@?$basic_string@DU?$char_traits@D@std@@V?$allocator@D@2@@std@@QAEAAV12@ABV12@II@Z 10064440 f i common:Buffer.obj
 0001:00063640       ?_Tidy@?$basic_string@DU?$char_traits@D@std@@V?$allocator@D@2@@std@@AAEX_N@Z 10064640 f i common:Buffer.obj
 0001:00063690       ?insert@?$map@EPAVCBuffer@Win32@OnlineGameLib@@U?$less@E@std@@V?$allocator@PAVCBuffer@Win32@OnlineGameLib@@@5@@std@@QAE?AU?$pair@Viterator@?$_Tree@EU?$pair@$$CBEPAVCBuffer@Win32@OnlineGameLib@@@std@@U_Kfn@?$map@EPAVCBuffer@Win32@OnlineGameLib@@U?$less@E@std@@V?$allocator@PAVCBuffer@Win32@OnlineGameLib@@@5@@2@U?$less@E@2@V?$allocator@PAVCBuffer@Win32@OnlineGameLib@@@2@@std@@_N@2@ABU?$pair@$$CBEPAVCBuffer@Win32@OnlineGameLib@@@2@@Z 10064690 f i common:Buffer.obj
 0001:000636c0       ?erase@?$_Tree@EU?$pair@$$CBEPAVCBuffer@Win32@OnlineGameLib@@@std@@U_Kfn@?$map@EPAVCBuffer@Win32@OnlineGameLib@@U?$less@E@std@@V?$allocator@PAVCBuffer@Win32@OnlineGameLib@@@5@@2@U?$less@E@2@V?$allocator@PAVCBuffer@Win32@OnlineGameLib@@@2@@std@@QAE?AViterator@12@V312@0@Z 100646c0 f i common:Buffer.obj
 0001:000637f0       ?find@?$_Tree@EU?$pair@$$CBEPAVCBuffer@Win32@OnlineGameLib@@@std@@U_Kfn@?$map@EPAVCBuffer@Win32@OnlineGameLib@@U?$less@E@std@@V?$allocator@PAVCBuffer@Win32@OnlineGameLib@@@5@@2@U?$less@E@2@V?$allocator@PAVCBuffer@Win32@OnlineGameLib@@@2@@std@@QAE?AViterator@12@ABE@Z 100647f0 f i common:Buffer.obj
 0001:00063840       ?assign@?$basic_string@DU?$char_traits@D@std@@V?$allocator@D@2@@std@@QAEAAV12@PBDI@Z 10064840 f i common:Buffer.obj
 0001:000638e0       ?erase@?$basic_string@DU?$char_traits@D@std@@V?$allocator@D@2@@std@@QAEAAV12@II@Z 100648e0 f i common:Buffer.obj
 0001:00063a00       ?_Eos@?$basic_string@DU?$char_traits@D@std@@V?$allocator@D@2@@std@@AAEXI@Z 10064a00 f i common:Buffer.obj
 0001:00063a20       ?_Grow@?$basic_string@DU?$char_traits@D@std@@V?$allocator@D@2@@std@@AAE_NI_N@Z 10064a20 f i common:Buffer.obj
 0001:00063b40       ?insert@?$_Tree@EU?$pair@$$CBEPAVCBuffer@Win32@OnlineGameLib@@@std@@U_Kfn@?$map@EPAVCBuffer@Win32@OnlineGameLib@@U?$less@E@std@@V?$allocator@PAVCBuffer@Win32@OnlineGameLib@@@5@@2@U?$less@E@2@V?$allocator@PAVCBuffer@Win32@OnlineGameLib@@@2@@std@@QAE?AU?$pair@Viterator@?$_Tree@EU?$pair@$$CBEPAVCBuffer@Win32@OnlineGameLib@@@std@@U_Kfn@?$map@EPAVCBuffer@Win32@OnlineGameLib@@U?$less@E@std@@V?$allocator@PAVCBuffer@Win32@OnlineGameLib@@@5@@2@U?$less@E@2@V?$allocator@PAVCBuffer@Win32@OnlineGameLib@@@2@@std@@_N@2@ABU?$pair@$$CBEPAVCBuffer@Win32@OnlineGameLib@@@2@@Z 10064b40 f i common:Buffer.obj
 0001:00063c70       ?erase@?$_Tree@EU?$pair@$$CBEPAVCBuffer@Win32@OnlineGameLib@@@std@@U_Kfn@?$map@EPAVCBuffer@Win32@OnlineGameLib@@U?$less@E@std@@V?$allocator@PAVCBuffer@Win32@OnlineGameLib@@@5@@2@U?$less@E@2@V?$allocator@PAVCBuffer@Win32@OnlineGameLib@@@2@@std@@QAE?AViterator@12@V312@@Z 10064c70 f i common:Buffer.obj
 0001:00064190       ?lower_bound@?$_Tree@EU?$pair@$$CBEPAVCBuffer@Win32@OnlineGameLib@@@std@@U_Kfn@?$map@EPAVCBuffer@Win32@OnlineGameLib@@U?$less@E@std@@V?$allocator@PAVCBuffer@Win32@OnlineGameLib@@@5@@2@U?$less@E@2@V?$allocator@PAVCBuffer@Win32@OnlineGameLib@@@2@@std@@QAE?AViterator@12@ABE@Z 10065190 f i common:Buffer.obj
 0001:000641b0       ?_Erase@?$_Tree@EU?$pair@$$CBEPAVCBuffer@Win32@OnlineGameLib@@@std@@U_Kfn@?$map@EPAVCBuffer@Win32@OnlineGameLib@@U?$less@E@std@@V?$allocator@PAVCBuffer@Win32@OnlineGameLib@@@5@@2@U?$less@E@2@V?$allocator@PAVCBuffer@Win32@OnlineGameLib@@@2@@std@@IAEXPAU_Node@12@@Z 100651b0 f i common:Buffer.obj
 0001:00064240       ?_Inc@const_iterator@?$_Tree@EU?$pair@$$CBEPAVCBuffer@Win32@OnlineGameLib@@@std@@U_Kfn@?$map@EPAVCBuffer@Win32@OnlineGameLib@@U?$less@E@std@@V?$allocator@PAVCBuffer@Win32@OnlineGameLib@@@5@@2@U?$less@E@2@V?$allocator@PAVCBuffer@Win32@OnlineGameLib@@@2@@std@@QAEXXZ 10065240 f i common:Buffer.obj
 0001:000642f0       ??0?$pair@Viterator@?$_Tree@EU?$pair@$$CBEPAVCBuffer@Win32@OnlineGameLib@@@std@@U_Kfn@?$map@EPAVCBuffer@Win32@OnlineGameLib@@U?$less@E@std@@V?$allocator@PAVCBuffer@Win32@OnlineGameLib@@@5@@2@U?$less@E@2@V?$allocator@PAVCBuffer@Win32@OnlineGameLib@@@2@@std@@_N@std@@QAE@ABViterator@?$_Tree@EU?$pair@$$CBEPAVCBuffer@Win32@OnlineGameLib@@@std@@U_Kfn@?$map@EPAVCBuffer@Win32@OnlineGameLib@@U?$less@E@std@@V?$allocator@PAVCBuffer@Win32@OnlineGameLib@@@5@@2@U?$less@E@2@V?$allocator@PAVCBuffer@Win32@OnlineGameLib@@@2@@1@AB_N@Z 100652f0 f i common:Buffer.obj
 0001:00064310       ?max_size@?$basic_string@DU?$char_traits@D@std@@V?$allocator@D@2@@std@@QBEIXZ 10065310 f i common:Buffer.obj
 0001:00064320       ?_Copy@?$basic_string@DU?$char_traits@D@std@@V?$allocator@D@2@@std@@AAEXI@Z 10065320 f i common:Buffer.obj
 0001:00064430       ?_Split@?$basic_string@DU?$char_traits@D@std@@V?$allocator@D@2@@std@@AAEXXZ 10065430 f i common:Buffer.obj
 0001:00064500       ?_Insert@?$_Tree@EU?$pair@$$CBEPAVCBuffer@Win32@OnlineGameLib@@@std@@U_Kfn@?$map@EPAVCBuffer@Win32@OnlineGameLib@@U?$less@E@std@@V?$allocator@PAVCBuffer@Win32@OnlineGameLib@@@5@@2@U?$less@E@2@V?$allocator@PAVCBuffer@Win32@OnlineGameLib@@@2@@std@@IAE?AViterator@12@PAU_Node@12@0ABU?$pair@$$CBEPAVCBuffer@Win32@OnlineGameLib@@@2@@Z 10065500 f i common:Buffer.obj
 0001:00064800       ?_Lbound@?$_Tree@EU?$pair@$$CBEPAVCBuffer@Win32@OnlineGameLib@@@std@@U_Kfn@?$map@EPAVCBuffer@Win32@OnlineGameLib@@U?$less@E@std@@V?$allocator@PAVCBuffer@Win32@OnlineGameLib@@@5@@2@U?$less@E@2@V?$allocator@PAVCBuffer@Win32@OnlineGameLib@@@2@@std@@IBEPAU_Node@12@ABE@Z 10065800 f i common:Buffer.obj
 0001:00064850       ?_Ubound@?$_Tree@EU?$pair@$$CBEPAVCBuffer@Win32@OnlineGameLib@@@std@@U_Kfn@?$map@EPAVCBuffer@Win32@OnlineGameLib@@U?$less@E@std@@V?$allocator@PAVCBuffer@Win32@OnlineGameLib@@@5@@2@U?$less@E@2@V?$allocator@PAVCBuffer@Win32@OnlineGameLib@@@2@@std@@IBEPAU_Node@12@ABE@Z 10065850 f i common:Buffer.obj
 0001:000648a0       ?_Dec@const_iterator@?$_Tree@EU?$pair@$$CBEPAVCBuffer@Win32@OnlineGameLib@@@std@@U_Kfn@?$map@EPAVCBuffer@Win32@OnlineGameLib@@U?$less@E@std@@V?$allocator@PAVCBuffer@Win32@OnlineGameLib@@@5@@2@U?$less@E@2@V?$allocator@PAVCBuffer@Win32@OnlineGameLib@@@2@@std@@QAEXXZ 100658a0 f i common:Buffer.obj
 0001:00064960       ?_Construct@std@@YAXPAU?$pair@$$CBEPAVCBuffer@Win32@OnlineGameLib@@@1@ABU21@@Z 10065960 f i common:Buffer.obj
 0001:00064980       ?_Distance@std@@YAXViterator@?$_Tree@EU?$pair@$$CBEPAVCBuffer@Win32@OnlineGameLib@@@std@@U_Kfn@?$map@EPAVCBuffer@Win32@OnlineGameLib@@U?$less@E@std@@V?$allocator@PAVCBuffer@Win32@OnlineGameLib@@@5@@2@U?$less@E@2@V?$allocator@PAVCBuffer@Win32@OnlineGameLib@@@2@@1@0AAIUbidirectional_iterator_tag@1@@Z 10065980 f i common:Buffer.obj
 0001:000649e0       ??0CNodeList@OnlineGameLib@@QAE@XZ 100659e0 f   common:NodeList.obj
 0001:000649f0       ?PushNode@CNodeList@OnlineGameLib@@QAEXPAVNode@12@@Z 100659f0 f   common:NodeList.obj
 0001:00064a20       ?PopNode@CNodeList@OnlineGameLib@@QAEPAVNode@12@XZ 10065a20 f   common:NodeList.obj
 0001:00064a40       ?RemoveNode@CNodeList@OnlineGameLib@@AAEXPAVNode@12@@Z 10065a40 f   common:NodeList.obj
 0001:00064a60       ??0Node@CNodeList@OnlineGameLib@@IAE@XZ 10065a60 f   common:NodeList.obj
 0001:00064a70       ??1Node@CNodeList@OnlineGameLib@@IAE@XZ 10065a70 f   common:NodeList.obj
 0001:00064ad0       ?AddToList@Node@CNodeList@OnlineGameLib@@QAEXPAV23@@Z 10065ad0 f   common:NodeList.obj
 0001:00064ae0       ?RemoveFromList@Node@CNodeList@OnlineGameLib@@QAEXXZ 10065ae0 f   common:NodeList.obj
 0001:00064af0       ?Unlink@Node@CNodeList@OnlineGameLib@@AAEXXZ 10065af0 f   common:NodeList.obj
 0001:00064b20       ??0CException@Win32@OnlineGameLib@@QAE@ABV?$basic_string@DU?$char_traits@D@std@@V?$allocator@D@2@@std@@0@Z 10065b20 f   common:Exception.obj
 0001:00064c50       ?GetWhere@CException@Win32@OnlineGameLib@@UBE?AV?$basic_string@DU?$char_traits@D@std@@V?$allocator@D@2@@std@@XZ 10065c50 f   common:Exception.obj
 0001:00064d80       ?GetMessageA@CException@Win32@OnlineGameLib@@UBE?AV?$basic_string@DU?$char_traits@D@std@@V?$allocator@D@2@@std@@XZ 10065d80 f   common:Exception.obj
 0001:00064eb0       ?MessageBoxA@CException@Win32@OnlineGameLib@@QBEXPAUHWND__@@@Z 10065eb0 f   common:Exception.obj
 0001:00064fc0       ??3@YAXPAX@Z               10065fc0 f   libcpmt:delop.obj
 0001:00064fcb       ??0_Lockit@std@@QAE@XZ     10065fcb f   libcpmt:xlock.obj
 0001:00065067       ??1_Lockit@std@@QAE@XZ     10066067 f   libcpmt:xlock.obj
 0001:0006507c       ?_Xlen@std@@YAXXZ          1006607c f   libcpmt:string.obj
 0001:000650d6       ??0logic_error@std@@QAE@ABV?$basic_string@DU?$char_traits@D@std@@V?$allocator@D@2@@1@@Z 100660d6 f i libcpmt:string.obj
 0001:0006513a       ?what@logic_error@std@@UBEPBDXZ 1006613a f i libcpmt:string.obj
 0001:00065147       ?_Doraise@logic_error@std@@MBEXXZ 10066147 f i libcpmt:string.obj
 0001:00065164       ??1logic_error@std@@UAE@XZ 10066164 f i libcpmt:string.obj
 0001:000651a1       ??_Glogic_error@std@@UAEPAXI@Z 100661a1 f i libcpmt:string.obj
 0001:000651a1       ??_Elogic_error@std@@UAEPAXI@Z 100661a1 f i libcpmt:string.obj
 0001:000651bd       ??0logic_error@std@@QAE@ABV01@@Z 100661bd f i libcpmt:string.obj
 0001:0006521a       ??1length_error@std@@UAE@XZ 1006621a f i libcpmt:string.obj
 0001:00065257       ?_Doraise@length_error@std@@MBEXXZ 10066257 f i libcpmt:string.obj
 0001:00065274       ??_Elength_error@std@@UAEPAXI@Z 10066274 f i libcpmt:string.obj
 0001:00065274       ??_Glength_error@std@@UAEPAXI@Z 10066274 f i libcpmt:string.obj
 0001:00065290       ??0length_error@std@@QAE@ABV01@@Z 10066290 f i libcpmt:string.obj
 0001:000652a8       ?_Xran@std@@YAXXZ          100662a8 f   libcpmt:string.obj
 0001:00065302       ??1out_of_range@std@@UAE@XZ 10066302 f i libcpmt:string.obj
 0001:0006533f       ?_Doraise@out_of_range@std@@MBEXXZ 1006633f f i libcpmt:string.obj
 0001:0006535c       ??_Eout_of_range@std@@UAEPAXI@Z 1006635c f i libcpmt:string.obj
 0001:0006535c       ??_Gout_of_range@std@@UAEPAXI@Z 1006635c f i libcpmt:string.obj
 0001:00065378       ??0out_of_range@std@@QAE@ABV01@@Z 10066378 f i libcpmt:string.obj
 0001:000653d2       ?id@?$collate@D@std@@$E    100663d2 f i libcpmt:string.obj
 0001:000653d3       __purecall                 100663d3 f   LIBCMT:purevirt.obj
 0001:000653dc       _sprintf                   100663dc f   LIBCMT:sprintf.obj
 0001:0006542e       __fpmath                   1006642e f   LIBCMT:fpinit.obj
 0001:00065445       __fpclear                  10066445 f   LIBCMT:fpinit.obj
 0001:00065446       __cfltcvt_init             10066446 f   LIBCMT:fpinit.obj
 0001:0006547e       ___setfflag                1006647e f   LIBCMT:fpinit.obj
 0001:00065490       __ftol                     10066490 f   LIBCMT:ftol.obj
 0001:000654b7       ?_JumpToContinuation@@YGXPAXPAUEHRegistrationNode@@@Z 100664b7 f   LIBCMT:trnsctrl.obj
 0001:000654eb       ?_CallMemberFunction0@@YGXPAX0@Z 100664eb f   LIBCMT:trnsctrl.obj
 0001:000654f2       ?_CallMemberFunction1@@YGXPAX00@Z 100664f2 f   LIBCMT:trnsctrl.obj
 0001:000654f9       ?_CallMemberFunction2@@YGXPAX00H@Z 100664f9 f   LIBCMT:trnsctrl.obj
 0001:00065500       ?_UnwindNestedFrames@@YGXPAUEHRegistrationNode@@PAUEHExceptionRecord@@@Z 10066500 f   LIBCMT:trnsctrl.obj
 0001:0006554f       ___CxxFrameHandler         1006654f f   LIBCMT:trnsctrl.obj
 0001:00065585       ___CxxLongjmpUnwind@4      10066585 f   LIBCMT:trnsctrl.obj
 0001:0006559f       ?_CallCatchBlock2@@YAPAXPAUEHRegistrationNode@@PBU_s_FuncInfo@@PAXHK@Z 1006659f f   LIBCMT:trnsctrl.obj
 0001:00065618       ?_CallSETranslator@@YAHPAUEHExceptionRecord@@PAUEHRegistrationNode@@PAX2PBU_s_FuncInfo@@H1@Z 10066618 f   LIBCMT:trnsctrl.obj
 0001:00065743       ?_GetRangeOfTrysToCheck@@YAPBU_s_TryBlockMapEntry@@PBU_s_FuncInfo@@HHPAI1@Z 10066743 f   LIBCMT:trnsctrl.obj
 0001:000657c0       __global_unwind2           100667c0 f   LIBCMT:exsup.obj
 0001:00065802       __local_unwind2            10066802 f   LIBCMT:exsup.obj
 0001:0006585a       __NLG_Return2              1006685a f   LIBCMT:exsup.obj
 0001:0006586a       __abnormal_termination     1006686a f   LIBCMT:exsup.obj
 0001:0006588d       __NLG_Notify1              1006688d f   LIBCMT:exsup.obj
 0001:00065896       __NLG_Notify               10066896 f   LIBCMT:exsup.obj
 0001:000658a9       __NLG_Dispatch             100668a9 f   LIBCMT:exsup.obj
 0001:000658ae       ??_L@YGXPAXIHP6EX0@Z1@Z    100668ae f   LIBCMT:ehvecctr.obj
 0001:00065930       __onexit                   10066930 f   LIBCMT:onexit.obj
 0001:000659ae       _atexit                    100669ae f   LIBCMT:onexit.obj
 0001:000659c0       ___onexitinit              100669c0 f   LIBCMT:onexit.obj
 0001:000659ef       ??_M@YGXPAXIHP6EX0@Z@Z     100669ef f   LIBCMT:ehvecdtr.obj
 0001:00065a6f       ?__ArrayUnwind@@YGXPAXIHP6EX0@Z@Z 10066a6f f   LIBCMT:ehvecdtr.obj
 0001:00065ae3       ??2@YAPAXI@Z               10066ae3 f   LIBCMT:new.obj
 0001:00065af1       _printf                    10066af1 f   LIBCMT:printf.obj
 0001:00065b40       _memmove                   10066b40 f   LIBCMT:memmove.obj
 0001:00065e75       _malloc                    10066e75 f   LIBCMT:malloc.obj
 0001:00065e87       __nh_malloc                10066e87 f   LIBCMT:malloc.obj
 0001:00065eb3       __heap_alloc               10066eb3 f   LIBCMT:malloc.obj
 0001:00065f01       _free                      10066f01 f   LIBCMT:free.obj
 0001:00065f49       _realloc                   10066f49 f   LIBCMT:realloc.obj
 0001:00066081       _atol                      10067081 f   LIBCMT:atox.obj
 0001:0006610c       _atoi                      1006710c f   LIBCMT:atox.obj
 0001:00066117       __atoi64                   10067117 f   LIBCMT:atox.obj
 0001:000661e0       _strncpy                   100671e0 f   LIBCMT:strncpy.obj
 0001:000662e0       __alloca_probe             100672e0 f   LIBCMT:chkstk.obj
 0001:000662e0       __chkstk                   100672e0 f   LIBCMT:chkstk.obj
 0001:0006630f       _ctime                     1006730f f   LIBCMT:ctime.obj
 0001:00066328       _srand                     10067328 f   LIBCMT:rand.obj
 0001:00066335       _rand                      10067335 f   LIBCMT:rand.obj
 0001:00066357       _time                      10067357 f   LIBCMT:time.obj
 0001:00066433       _localtime                 10067433 f   LIBCMT:localtim.obj
 0001:00066593       _fclose                    10067593 f   LIBCMT:fclose.obj
 0001:000665c4       __fclose_lk                100675c4 f   LIBCMT:fclose.obj
 0001:00066610       _fwrite                    10067610 f   LIBCMT:fwrite.obj
 0001:0006663f       __fwrite_lk                1006763f f   LIBCMT:fwrite.obj
 0001:00066749       __fsopen                   10067749 f   LIBCMT:fopen.obj
 0001:0006677a       _fopen                     1006777a f   LIBCMT:fopen.obj
 0001:00066790       _strstr                    10067790 f   LIBCMT:strstr.obj
 0001:00066810       __findfirst                10067810 f   LIBCMT:findfile.obj
 0001:000668dd       __findnext                 100678dd f   LIBCMT:findfile.obj
 0001:000669a5       __findclose                100679a5 f   LIBCMT:findfile.obj
 0001:000669c5       ___timet_from_ft           100679c5 f   LIBCMT:findfile.obj
 0001:00066a29       __strupr                   10067a29 f   LIBCMT:strupr.obj
 0001:00066b5d       __CRT_INIT@12              10067b5d f   LIBCMT:dllcrt0.obj
 0001:00066c36       __DllMainCRTStartup@12     10067c36 f   LIBCMT:dllcrt0.obj
 0001:00066cd3       __amsg_exit                10067cd3 f   LIBCMT:dllcrt0.obj
 0001:00066d06       ??1type_info@@UAE@XZ       10067d06 f   LIBCMT:typinfo.obj
 0001:00066d2f       ??_Gtype_info@@UAEPAXI@Z   10067d2f f i LIBCMT:typinfo.obj
 0001:00066d2f       ??_Etype_info@@UAEPAXI@Z   10067d2f f i LIBCMT:typinfo.obj
 0001:00066d4b       ??8type_info@@QBEHABV0@@Z  10067d4b f   LIBCMT:typinfo.obj
 0001:00066d66       ??9type_info@@QBEHABV0@@Z  10067d66 f   LIBCMT:typinfo.obj
 0001:00066d82       ?before@type_info@@QBEHABV1@@Z 10067d82 f   LIBCMT:typinfo.obj
 0001:00066da1       ?raw_name@type_info@@QBEPBDXZ 10067da1 f   LIBCMT:typinfo.obj
 0001:00066da5       ??0type_info@@AAE@ABV0@@Z  10067da5 f   LIBCMT:typinfo.obj
 0001:00066db0       ??4type_info@@AAEAAV0@ABV0@@Z 10067db0 f   LIBCMT:typinfo.obj
 0001:00066db5       __CxxThrowException@8      10067db5 f   LIBCMT:throw.obj
 0001:00066def       ??0exception@@QAE@XZ       10067def f   LIBCMT:stdexcpt.obj
 0001:00066e00       ??_Eexception@@UAEPAXI@Z   10067e00 f i LIBCMT:stdexcpt.obj
 0001:00066e00       ??_Gexception@@UAEPAXI@Z   10067e00 f i LIBCMT:stdexcpt.obj
 0001:00066e1c       ??0exception@@QAE@ABQBD@Z  10067e1c f   LIBCMT:stdexcpt.obj
 0001:00066e59       ??0exception@@QAE@ABV0@@Z  10067e59 f   LIBCMT:stdexcpt.obj
 0001:00066ea3       ??4exception@@QAEAAV0@ABV0@@Z 10067ea3 f   LIBCMT:stdexcpt.obj
 0001:00066ec2       ??1exception@@UAE@XZ       10067ec2 f   LIBCMT:stdexcpt.obj
 0001:00066ed8       ?what@exception@@UBEPBDXZ  10067ed8 f   LIBCMT:stdexcpt.obj
 0001:00066ef0       _strlen                    10067ef0 f   LIBCMT:strlen.obj
 0001:00066f6c       __EH_prolog                10067f6c f   LIBCMT:ehprolog.obj
 0001:00066f90       _memcpy                    10067f90 f   LIBCMT:memcpy.obj
 0001:000672c5       __flsbuf                   100682c5 f   LIBCMT:_flsbuf.obj
 0001:000673dd       __output                   100683dd f   LIBCMT:output.obj
 0001:00067be7       __setdefaultprecision      10068be7 f   LIBCMT:fp8.obj
 0001:00067bf9       __ms_p5_test_fdiv          10068bf9 f   LIBCMT:testfdiv.obj
 0001:00067c37       __ms_p5_mp_test_fdiv       10068c37 f   LIBCMT:testfdiv.obj
 0001:00067c60       __forcdecpt                10068c60 f   LIBCMT:cvt.obj
 0001:00067cba       __cropzeros                10068cba f   LIBCMT:cvt.obj
 0001:00067d08       __positive                 10068d08 f   LIBCMT:cvt.obj
 0001:00067d20       __fassign                  10068d20 f   LIBCMT:cvt.obj
 0001:00067d5e       __cftoe                    10068d5e f   LIBCMT:cvt.obj
 0001:00067e81       __cftof                    10068e81 f   LIBCMT:cvt.obj
 0001:00067f7d       __cftog                    10068f7d f   LIBCMT:cvt.obj
 0001:00068010       __cfltcvt                  10069010 f   LIBCMT:cvt.obj
 0001:00068086       ___InternalCxxFrameHandler 10069086 f   LIBCMT:frame.obj
 0001:000683db       ___FrameUnwindToState      100693db f   LIBCMT:frame.obj
 0001:00068813       ?_DestructExceptionObject@@YAXPAUEHExceptionRecord@@E@Z 10069813 f   LIBCMT:frame.obj
 0001:000688a0       __CallSettingFrame@12      100698a0 f   LIBCMT:lowhelpr.obj
 0001:000688c7       __NLG_Return               100698c7 f   LIBCMT:lowhelpr.obj
 0001:000688ec       __mtinit                   100698ec f   LIBCMT:tidtable.obj
 0001:00068940       __mtterm                   10069940 f   LIBCMT:tidtable.obj
 0001:0006895e       __initptd                  1006995e f   LIBCMT:tidtable.obj
 0001:00068971       __getptd                   10069971 f   LIBCMT:tidtable.obj
 0001:000689d8       __freeptd                  100699d8 f   LIBCMT:tidtable.obj
 0001:00068a78       ___threadid                10069a78 f   LIBCMT:tidtable.obj
 0001:00068a7e       ___threadhandle            10069a7e f   LIBCMT:tidtable.obj
 0001:00068a84       ?terminate@@YAXXZ          10069a84 f   LIBCMT:hooks.obj
 0001:00068ae5       ?unexpected@@YAXXZ         10069ae5 f   LIBCMT:hooks.obj
 0001:00068afd       ?_inconsistency@@YAXXZ     10069afd f   LIBCMT:hooks.obj
 0001:00068b5c       __except_handler3          10069b5c f   LIBCMT:exsup3.obj
 0001:00068c19       __seh_longjmp_unwind@4     10069c19 f   LIBCMT:exsup3.obj
 0001:00068c34       __cinit                    10069c34 f   LIBCMT:crt0dat.obj
 0001:00068c61       _exit                      10069c61 f   LIBCMT:crt0dat.obj
 0001:00068c72       __exit                     10069c72 f   LIBCMT:crt0dat.obj
 0001:00068c83       __cexit                    10069c83 f   LIBCMT:crt0dat.obj
 0001:00068c92       __c_exit                   10069c92 f   LIBCMT:crt0dat.obj
 0001:00068d46       __lockexit                 10069d46 f   LIBCMT:crt0dat.obj
 0001:00068d4f       __unlockexit               10069d4f f   LIBCMT:crt0dat.obj
 0001:00068d72       __msize                    10069d72 f   LIBCMT:msize.obj
 0001:00068db7       ___initstdio               10069db7 f   LIBCMT:_file.obj
 0001:00068e5f       ___endstdio                10069e5f f   LIBCMT:_file.obj
 0001:00068e73       __lock_file                10069e73 f   LIBCMT:_file.obj
 0001:00068ea2       __lock_file2               10069ea2 f   LIBCMT:_file.obj
 0001:00068ec5       __unlock_file              10069ec5 f   LIBCMT:_file.obj
 0001:00068ef4       __unlock_file2             10069ef4 f   LIBCMT:_file.obj
 0001:00068f17       __stbuf                    10069f17 f   LIBCMT:_sftbuf.obj
 0001:00068fa4       __ftbuf                    10069fa4 f   LIBCMT:_sftbuf.obj
 0001:00068fce       ?_set_new_handler@@YAP6AHI@ZP6AHI@Z@Z 10069fce f   LIBCMT:handler.obj
 0001:00068ff2       ?_query_new_handler@@YAP6AHI@ZXZ 10069ff2 f   LIBCMT:handler.obj
 0001:00068ff8       __callnewh                 10069ff8 f   LIBCMT:handler.obj
 0001:00069013       __heap_init                1006a013 f   LIBCMT:heapinit.obj
 0001:0006904f       __heap_term                1006a04f f   LIBCMT:heapinit.obj
 0001:000690c4       __mtinitlocks              1006a0c4 f   LIBCMT:mlock.obj
 0001:000690ed       __mtdeletelocks            1006a0ed f   LIBCMT:mlock.obj
 0001:00069159       __lock                     1006a159 f   LIBCMT:mlock.obj
 0001:000691ba       __unlock                   1006a1ba f   LIBCMT:mlock.obj
 0001:000691cf       __lockerr_exit             1006a1cf f   LIBCMT:mlock.obj
 0001:000691e7       __get_sbh_threshold        1006a1e7 f   LIBCMT:sbheap.obj
 0001:000691ed       __set_sbh_threshold        1006a1ed f   LIBCMT:sbheap.obj
 0001:00069204       ___sbh_heap_init           1006a204 f   LIBCMT:sbheap.obj
 0001:00069242       ___sbh_find_block          1006a242 f   LIBCMT:sbheap.obj
 0001:0006926d       ___sbh_free_block          1006a26d f   LIBCMT:sbheap.obj
 0001:00069598       ___sbh_alloc_block         1006a598 f   LIBCMT:sbheap.obj
 0001:000698a1       ___sbh_alloc_new_region    1006a8a1 f   LIBCMT:sbheap.obj
 0001:00069952       ___sbh_alloc_new_group     1006a952 f   LIBCMT:sbheap.obj
 0001:00069a4d       ___sbh_resize_block        1006aa4d f   LIBCMT:sbheap.obj
 0001:00069d43       ___sbh_heapmin             1006ad43 f   LIBCMT:sbheap.obj
 0001:00069e14       ___sbh_heap_check          1006ae14 f   LIBCMT:sbheap.obj
 0001:0006a143       __isctype                  1006b143 f   LIBCMT:isctype.obj
 0001:0006a1c0       __allmul                   1006b1c0 f   LIBCMT:llmul.obj
 0001:0006a1f4       _asctime                   1006b1f4 f   LIBCMT:asctime.obj
 0001:0006a2e6       ___loctotime_t             1006b2e6 f   LIBCMT:dtoxtime.obj
 0001:0006a3a8       ___tzset                   1006b3a8 f   LIBCMT:tzset.obj
 0001:0006a3d6       __tzset                    1006b3d6 f   LIBCMT:tzset.obj
 0001:0006a673       __isindst                  1006b673 f   LIBCMT:tzset.obj
 0001:0006a980       _gmtime                    1006b980 f   LIBCMT:gmtime.obj
 0001:0006aa8a       __close                    1006ba8a f   LIBCMT:close.obj
 0001:0006aae7       __close_lk                 1006bae7 f   LIBCMT:close.obj
 0001:0006ab6a       __freebuf                  1006bb6a f   LIBCMT:_freebuf.obj
 0001:0006ab95       _fflush                    1006bb95 f   LIBCMT:fflush.obj
 0001:0006abc4       __fflush_lk                1006bbc4 f   LIBCMT:fflush.obj
 0001:0006abf2       __flush                    1006bbf2 f   LIBCMT:fflush.obj
 0001:0006ac4e       __flushall                 1006bc4e f   LIBCMT:fflush.obj
 0001:0006acfb       __write                    1006bcfb f   LIBCMT:write.obj
 0001:0006ad60       __write_lk                 1006bd60 f   LIBCMT:write.obj
 0001:0006aeeb       __openfile                 1006beeb f   LIBCMT:_open.obj
 0001:0006b05b       __getstream                1006c05b f   LIBCMT:stream.obj
 0001:0006b140       _strchr                    1006c140 f   LIBCMT:strchr.obj
 0001:0006b146       ___from_strstr_to_strchr   1006c146 f   LIBCMT:strchr.obj
 0001:0006b200       _strcpy                    1006c200 f   LIBCMT:strcat.obj
 0001:0006b210       _strcat                    1006c210 f   LIBCMT:strcat.obj
 0001:0006b2f0       __dosmaperr                1006c2f0 f   LIBCMT:dosmap.obj
 0001:0006b363       __errno                    1006c363 f   LIBCMT:dosmap.obj
 0001:0006b36c       ___doserrno                1006c36c f   LIBCMT:dosmap.obj
 0001:0006b375       ___crtLCMapStringA         1006c375 f   LIBCMT:a_map.obj
 0001:0006b5c4       _setlocale                 1006c5c4 f   LIBCMT:setlocal.obj
 0001:0006b9de       __expandlocale             1006c9de f   LIBCMT:setlocal.obj
 0001:0006baf6       ___init_dummy              1006caf6 f   LIBCMT:setlocal.obj
 0001:0006baf9       __strcats                  1006caf9 f   LIBCMT:setlocal.obj
 0001:0006bb1e       ___lc_strtolc              1006cb1e f   LIBCMT:setlocal.obj
 0001:0006bbea       ___lc_lctostr              1006cbea f   LIBCMT:setlocal.obj
 0001:0006bc3d       __ioinit                   1006cc3d f   LIBCMT:ioinit.obj
 0001:0006bdf9       __ioterm                   1006cdf9 f   LIBCMT:ioinit.obj
 0001:0006be4d       __setenvp                  1006ce4d f   LIBCMT:stdenvp.obj
 0001:0006bf06       __setargv                  1006cf06 f   LIBCMT:stdargv.obj
 0001:0006c153       ___crtGetEnvironmentStringsA 1006d153 f   LIBCMT:a_env.obj
 0001:0006c285       _DllMain@12                1006d285 f   LIBCMT:dllmain.obj
 0001:0006c28b       __FF_MSGBANNER             1006d28b f   LIBCMT:crt0msg.obj
 0001:0006c2c4       __NMSG_WRITE               1006d2c4 f   LIBCMT:crt0msg.obj
 0001:0006c417       __GET_RTERRMSG             1006d417 f   LIBCMT:crt0msg.obj
 0001:0006c450       _strcmp                    1006d450 f   LIBCMT:strcmp.obj
 0001:0006c4d4       ?__CxxUnhandledExceptionFilter@@YGJPAU_EXCEPTION_POINTERS@@@Z 1006d4d4 f   LIBCMT:unhandld.obj
 0001:0006c51a       ?__CxxSetUnhandledExceptionFilter@@YAXXZ 1006d51a f   LIBCMT:unhandld.obj
 0001:0006c52b       ?__CxxRestoreUnhandledExceptionFilter@@YAXXZ 1006d52b f   LIBCMT:unhandld.obj
 0001:0006c538       __lseek                    1006d538 f   LIBCMT:lseek.obj
 0001:0006c59d       __lseek_lk                 1006d59d f   LIBCMT:lseek.obj
 0001:0006c610       __getbuf                   1006d610 f   LIBCMT:_getbuf.obj
 0001:0006c654       __isatty                   1006d654 f   LIBCMT:isatty.obj
 0001:0006c67d       _wctomb                    1006d67d f   LIBCMT:wctomb.obj
 0001:0006c6d6       __wctomb_lk                1006d6d6 f   LIBCMT:wctomb.obj
 0001:0006c740       __aulldiv                  1006d740 f   LIBCMT:ulldiv.obj
 0001:0006c7b0       __aullrem                  1006d7b0 f   LIBCMT:ullrem.obj
 0001:0006c825       __statusfp                 1006d825 f   LIBCMT:ieee87.obj
 0001:0006c838       __clearfp                  1006d838 f   LIBCMT:ieee87.obj
 0001:0006c84c       __control87                1006d84c f   LIBCMT:ieee87.obj
 0001:0006c881       __controlfp                1006d881 f   LIBCMT:ieee87.obj
 0001:0006c897       __fpreset                  1006d897 f   LIBCMT:ieee87.obj
 0001:0006ca12       __tolower                  1006da12 f   LIBCMT:tolower.obj
 0001:0006ca1a       _tolower                   1006da1a f   LIBCMT:tolower.obj
 0001:0006ca89       __tolower_lk               1006da89 f   LIBCMT:tolower.obj
 0001:0006cb54       __ZeroTail                 1006db54 f   LIBCMT:intrncvt.obj
 0001:0006cb9d       __IncMan                   1006db9d f   LIBCMT:intrncvt.obj
 0001:0006cbf3       __RoundMan                 1006dbf3 f   LIBCMT:intrncvt.obj
 0001:0006cc7f       __CopyMan                  1006dc7f f   LIBCMT:intrncvt.obj
 0001:0006cc9a       __FillZeroMan              1006dc9a f   LIBCMT:intrncvt.obj
 0001:0006cca6       __IsZeroMan                1006dca6 f   LIBCMT:intrncvt.obj
 0001:0006ccc1       __ShrMan                   1006dcc1 f   LIBCMT:intrncvt.obj
 0001:0006cd4e       __ld12cvt                  1006dd4e f   LIBCMT:intrncvt.obj
 0001:0006ceba       __ld12tod                  1006deba f   LIBCMT:intrncvt.obj
 0001:0006ced0       __ld12tof                  1006ded0 f   LIBCMT:intrncvt.obj
 0001:0006cee6       __ld12told                 1006dee6 f   LIBCMT:intrncvt.obj
 0001:0006cf60       __atodbl                   1006df60 f   LIBCMT:intrncvt.obj
 0001:0006cf8d       __atoldbl                  1006df8d f   LIBCMT:intrncvt.obj
 0001:0006cfbb       __atoflt                   1006dfbb f   LIBCMT:intrncvt.obj
 0001:0006cfe8       __fptostr                  1006dfe8 f   LIBCMT:_fptostr.obj
 0001:0006d05f       __fltout2                  1006e05f f   LIBCMT:cfout.obj
 0001:0006d0bb       ___dtold                   1006e0bb f   LIBCMT:cfout.obj
 0001:0006d180       _memset                    1006e180 f   LIBCMT:memset.obj
 0001:0006d1d8       __fptrap                   1006e1d8 f   LIBCMT:crt0fp.obj
 0001:0006d1e1       ?_ValidateRead@@YAHPBXI@Z  1006e1e1 f   LIBCMT:validate.obj
 0001:0006d1fd       ?_ValidateWrite@@YAHPAXI@Z 1006e1fd f   LIBCMT:validate.obj
 0001:0006d219       ?_ValidateExecute@@YAHP6GHXZ@Z 1006e219 f   LIBCMT:validate.obj
 0001:0006d231       _calloc                    1006e231 f   LIBCMT:calloc.obj
 0001:0006d2be       __XcptFilter               1006e2be f   LIBCMT:winxfltr.obj
 0001:0006d436       _abort                     1006e436 f   LIBCMT:abort.obj
 0001:0006d44d       __fcloseall                1006e44d f   LIBCMT:closeall.obj
 0001:0006d4ce       ___crtGetStringTypeA       1006e4ce f   LIBCMT:a_str.obj
 0001:0006d617       _getenv                    1006e617 f   LIBCMT:getenv.obj
 0001:0006d638       __getenv_lk                1006e638 f   LIBCMT:getenv.obj
 0001:0006d6b5       __alloc_osfhnd             1006e6b5 f   LIBCMT:osfinfo.obj
 0001:0006d7d8       __set_osfhnd               1006e7d8 f   LIBCMT:osfinfo.obj
 0001:0006d854       __free_osfhnd              1006e854 f   LIBCMT:osfinfo.obj
 0001:0006d8d3       __get_osfhandle            1006e8d3 f   LIBCMT:osfinfo.obj
 0001:0006d915       __open_osfhandle           1006e915 f   LIBCMT:osfinfo.obj
 0001:0006d9bc       __lock_fhandle             1006e9bc f   LIBCMT:osfinfo.obj
 0001:0006da1b       __unlock_fhandle           1006ea1b f   LIBCMT:osfinfo.obj
 0001:0006da3d       __commit                   1006ea3d f   LIBCMT:commit.obj
 0001:0006dad0       __open                     1006ead0 f   LIBCMT:open.obj
 0001:0006dae7       __sopen                    1006eae7 f   LIBCMT:open.obj
 0001:0006ddb6       ___init_time               1006edb6 f   LIBCMT:inittime.obj
 0001:0006e325       ___init_numeric            1006f325 f   LIBCMT:initnum.obj
 0001:0006e531       ___init_monetary           1006f531 f   LIBCMT:initmon.obj
 0001:0006e7a3       ___init_ctype              1006f7a3 f   LIBCMT:initctyp.obj
 0001:0006e9e8       ___init_collate            1006f9e8 f   LIBCMT:initcoll.obj
 0001:0006e9f0       _strcspn                   1006f9f0 f   LIBCMT:strcspn.obj
 0001:0006ea30       _strncmp                   1006fa30 f   LIBCMT:strncmp.obj
 0001:0006ea70       _strpbrk                   1006fa70 f   LIBCMT:strpbrk.obj
 0001:0006eaaa       ___get_qualified_locale    1006faaa f   LIBCMT:getqloc.obj
 0001:0006f351       __setmbcp                  10070351 f   LIBCMT:mbctype.obj
 0001:0006f729       __getmbcp                  10070729 f   LIBCMT:mbctype.obj
 0001:0006f739       ___initmbctable            10070739 f   LIBCMT:mbctype.obj
 0001:0006f755       ___crtMessageBoxA          10070755 f   LIBCMT:crtmbox.obj
 0001:0006f7de       _signal                    100707de f   LIBCMT:winsig.obj
 0001:0006f9c2       _raise                     100709c2 f   LIBCMT:winsig.obj
 0001:0006fb81       ___fpecode                 10070b81 f   LIBCMT:winsig.obj
 0001:0006fb8a       ___pxcptinfoptrs           10070b8a f   LIBCMT:winsig.obj
 0001:0006fb93       ___addl                    10070b93 f   LIBCMT:mantold.obj
 0001:0006fbb4       ___add_12                  10070bb4 f   LIBCMT:mantold.obj
 0001:0006fc12       ___shl_12                  10070c12 f   LIBCMT:mantold.obj
 0001:0006fc40       ___shr_12                  10070c40 f   LIBCMT:mantold.obj
 0001:0006fc6d       ___mtold12                 10070c6d f   LIBCMT:mantold.obj
 0001:0006fd34       ___strgtold12              10070d34 f   LIBCMT:strgtold.obj
 0001:00070205       ___STRINGTOLD              10071205 f   LIBCMT:strgtold.obj
 0001:00070241       _$I10_OUTPUT               10071241 f   LIBCMT:x10fout.obj
 0001:000704d4       __mbsnbicoll               100714d4 f   LIBCMT:mbsnbico.obj
 0001:00070513       ___wtomb_environ           10071513 f   LIBCMT:wtombenv.obj
 0001:00070581       __chsize                   10071581 f   LIBCMT:chsize.obj
 0001:000705da       __chsize_lk                100715da f   LIBCMT:chsize.obj
 0001:000706ff       __read                     100716ff f   LIBCMT:read.obj
 0001:00070764       __read_lk                  10071764 f   LIBCMT:read.obj
 0001:0007093d       __Getdays                  1007193d f   LIBCMT:strftime.obj
 0001:000709cc       __Getmonths                100719cc f   LIBCMT:strftime.obj
 0001:00070a61       __Gettnames                10071a61 f   LIBCMT:strftime.obj
 0001:00070c93       _strftime                  10071c93 f   LIBCMT:strftime.obj
 0001:00070cae       __Strftime                 10071cae f   LIBCMT:strftime.obj
 0001:00071545       ___getlocaleinfo           10072545 f   LIBCMT:inithelp.obj
 0001:0007167d       _localeconv                1007267d f   LIBCMT:lconv.obj
 0001:00071683       ___crtGetStringTypeW       10072683 f   LIBCMT:w_str.obj
 0001:00071848       _itoa                      10072848 f   LIBCMT:xtoa.obj
 0001:00071848       __itoa                     10072848 f   LIBCMT:xtoa.obj
 0001:000718d1       __ltoa                     100728d1 f   LIBCMT:xtoa.obj
 0001:000718fb       __ultoa                    100728fb f   LIBCMT:xtoa.obj
 0001:00071916       __i64toa                   10072916 f   LIBCMT:xtoa.obj
 0001:000719cd       __ui64toa                  100729cd f   LIBCMT:xtoa.obj
 0001:000719f0       __stricmp                  100729f0 f   LIBCMT:stricmp.obj
 0001:000719f0       __strcmpi                  100729f0 f   LIBCMT:stricmp.obj
 0001:000719f0       _strcmpi                   100729f0 f   LIBCMT:stricmp.obj
 0001:00071ac0       __strnicmp                 10072ac0 f   LIBCMT:strnicmp.obj
 0001:00071bc1       ___ld12mul                 10072bc1 f   LIBCMT:tenpow.obj
 0001:00071de1       ___multtenpow12            10072de1 f   LIBCMT:tenpow.obj
 0001:00071e5d       ___crtCompareStringA       10072e5d f   LIBCMT:a_cmp.obj
 0001:00072105       ___crtsetenv               10073105 f   LIBCMT:setenv.obj
 0001:0007234b       __setmode                  1007334b f   LIBCMT:setmode.obj
 0001:000723a4       __setmode_lk               100733a4 f   LIBCMT:setmode.obj
 0001:00072405       ___crtGetLocaleInfoW       10073405 f   LIBCMT:w_loc.obj
 0001:00072518       ___crtGetLocaleInfoA       10073518 f   LIBCMT:a_loc.obj
 0001:00072636       __mbschr                   10073636 f   LIBCMT:mbschr.obj
 0001:000726cd       __strdup                   100736cd f   LIBCMT:strdup.obj
 0001:00072700       _InterlockedDecrement@4    10073700 f   kernel32:KERNEL32.dll
 0001:00072706       _InitializeCriticalSection@4 10073706 f   kernel32:KERNEL32.dll
 0001:0007270c       _DeleteCriticalSection@4   1007370c f   kernel32:KERNEL32.dll
 0001:00072712       _LeaveCriticalSection@4    10073712 f   kernel32:KERNEL32.dll
 0001:00072718       _InterlockedIncrement@4    10073718 f   kernel32:KERNEL32.dll
 0001:0007271e       _EnterCriticalSection@4    1007371e f   kernel32:KERNEL32.dll
 0001:00072724       _InterlockedExchange@8     10073724 f   kernel32:KERNEL32.dll
 0001:0007272a       _Sleep@4                   1007372a f   kernel32:KERNEL32.dll
 0001:00072730       _RtlUnwind@16              10073730 f   kernel32:KERNEL32.dll
 0001:00072736       _HeapAlloc@12              10073736 f   kernel32:KERNEL32.dll
 0001:0007273c       _HeapFree@12               1007373c f   kernel32:KERNEL32.dll
 0001:00072742       _HeapReAlloc@16            10073742 f   kernel32:KERNEL32.dll
 0001:00072748       _GetTimeZoneInformation@4  10073748 f   kernel32:KERNEL32.dll
 0001:0007274e       _GetSystemTime@4           1007374e f   kernel32:KERNEL32.dll
 0001:00072754       _GetLocalTime@4            10073754 f   kernel32:KERNEL32.dll
 0001:0007275a       _GetLastError@0            1007375a f   kernel32:KERNEL32.dll
 0001:00072760       _FindFirstFileA@8          10073760 f   kernel32:KERNEL32.dll
 0001:00072766       _FindNextFileA@8           10073766 f   kernel32:KERNEL32.dll
 0001:0007276c       _FindClose@4               1007376c f   kernel32:KERNEL32.dll
 0001:00072772       _FileTimeToLocalFileTime@8 10073772 f   kernel32:KERNEL32.dll
 0001:00072778       _GetCommandLineA@0         10073778 f   kernel32:KERNEL32.dll
 0001:0007277e       _GetVersion@0              1007377e f   kernel32:KERNEL32.dll
 0001:00072784       _RaiseException@16         10073784 f   kernel32:KERNEL32.dll
 0001:0007278a       _GetProcAddress@8          1007378a f   kernel32:KERNEL32.dll
 0001:00072790       _GetModuleHandleA@4        10073790 f   kernel32:KERNEL32.dll
 0001:00072796       _GetCurrentThreadId@0      10073796 f   kernel32:KERNEL32.dll
 0001:0007279c       _TlsSetValue@8             1007379c f   kernel32:KERNEL32.dll
 0001:000727a2       _TlsAlloc@0                100737a2 f   kernel32:KERNEL32.dll
 0001:000727a8       _TlsFree@4                 100737a8 f   kernel32:KERNEL32.dll
 0001:000727ae       _SetLastError@4            100737ae f   kernel32:KERNEL32.dll
 0001:000727b4       _TlsGetValue@4             100737b4 f   kernel32:KERNEL32.dll
 0001:000727ba       _GetCurrentThread@0        100737ba f   kernel32:KERNEL32.dll
 0001:000727c0       _ExitProcess@4             100737c0 f   kernel32:KERNEL32.dll
 0001:000727c6       _TerminateProcess@8        100737c6 f   kernel32:KERNEL32.dll
 0001:000727cc       _GetCurrentProcess@0       100737cc f   kernel32:KERNEL32.dll
 0001:000727d2       _HeapSize@12               100737d2 f   kernel32:KERNEL32.dll
 0001:000727d8       _HeapDestroy@4             100737d8 f   kernel32:KERNEL32.dll
 0001:000727de       _HeapCreate@12             100737de f   kernel32:KERNEL32.dll
 0001:000727e4       _VirtualFree@12            100737e4 f   kernel32:KERNEL32.dll
 0001:000727ea       _FatalAppExitA@8           100737ea f   kernel32:KERNEL32.dll
 0001:000727f0       _VirtualAlloc@16           100737f0 f   kernel32:KERNEL32.dll
 0001:000727f6       _IsBadWritePtr@8           100737f6 f   kernel32:KERNEL32.dll
 0001:000727fc       _WideCharToMultiByte@32    100737fc f   kernel32:KERNEL32.dll
 0001:00072802       _MultiByteToWideChar@24    10073802 f   kernel32:KERNEL32.dll
 0001:00072808       _LCMapStringA@24           10073808 f   kernel32:KERNEL32.dll
 0001:0007280e       _LCMapStringW@24           1007380e f   kernel32:KERNEL32.dll
 0001:00072814       _SetHandleCount@4          10073814 f   kernel32:KERNEL32.dll
 0001:0007281a       _GetStdHandle@4            1007381a f   kernel32:KERNEL32.dll
 0001:00072820       _GetFileType@4             10073820 f   kernel32:KERNEL32.dll
 0001:00072826       _GetStartupInfoA@4         10073826 f   kernel32:KERNEL32.dll
 0001:0007282c       _GetModuleFileNameA@12     1007382c f   kernel32:KERNEL32.dll
 0001:00072832       _FreeEnvironmentStringsA@4 10073832 f   kernel32:KERNEL32.dll
 0001:00072838       _FreeEnvironmentStringsW@4 10073838 f   kernel32:KERNEL32.dll
 0001:0007283e       _GetEnvironmentStrings@0   1007383e f   kernel32:KERNEL32.dll
 0001:00072844       _GetEnvironmentStringsW@0  10073844 f   kernel32:KERNEL32.dll
 0001:0007284a       _SetUnhandledExceptionFilter@4 1007384a f   kernel32:KERNEL32.dll
 0001:00072850       _IsBadReadPtr@8            10073850 f   kernel32:KERNEL32.dll
 0001:00072856       _IsBadCodePtr@4            10073856 f   kernel32:KERNEL32.dll
 0001:0007285c       _UnhandledExceptionFilter@4 1007385c f   kernel32:KERNEL32.dll
 0001:00072862       _GetStringTypeA@20         10073862 f   kernel32:KERNEL32.dll
 0001:00072868       _GetStringTypeW@16         10073868 f   kernel32:KERNEL32.dll
 0001:0007286e       _SetStdHandle@8            1007386e f   kernel32:KERNEL32.dll
 0001:00072874       _FlushFileBuffers@4        10073874 f   kernel32:KERNEL32.dll
 0001:0007287a       _GetCPInfo@8               1007387a f   kernel32:KERNEL32.dll
 0001:00072880       _IsValidLocale@8           10073880 f   kernel32:KERNEL32.dll
 0001:00072886       _IsValidCodePage@4         10073886 f   kernel32:KERNEL32.dll
 0001:0007288c       _GetLocaleInfoA@16         1007388c f   kernel32:KERNEL32.dll
 0001:00072892       _EnumSystemLocalesA@8      10073892 f   kernel32:KERNEL32.dll
 0001:00072898       _GetUserDefaultLCID@0      10073898 f   kernel32:KERNEL32.dll
 0001:0007289e       _GetVersionExA@4           1007389e f   kernel32:KERNEL32.dll
 0001:000728a4       _GetACP@0                  100738a4 f   kernel32:KERNEL32.dll
 0001:000728aa       _GetOEMCP@0                100738aa f   kernel32:KERNEL32.dll
 0001:000728b0       _LoadLibraryA@4            100738b0 f   kernel32:KERNEL32.dll
 0001:000728b6       _SetConsoleCtrlHandler@8   100738b6 f   kernel32:KERNEL32.dll
 0001:000728bc       _SetEndOfFile@4            100738bc f   kernel32:KERNEL32.dll
 0001:000728c2       _ReadFile@20               100738c2 f   kernel32:KERNEL32.dll
 0001:000728c8       _CompareStringA@24         100738c8 f   kernel32:KERNEL32.dll
 0001:000728ce       _CompareStringW@24         100738ce f   kernel32:KERNEL32.dll
 0001:000728d4       _SetEnvironmentVariableA@8 100738d4 f   kernel32:KERNEL32.dll
 0001:000728da       _GetLocaleInfoW@16         100738da f   kernel32:KERNEL32.dll
 0001:000728e0       _MessageBoxA@16            100738e0 f   user32:USER32.dll
 0001:000728e6       __strlwr                   100738e6 f   LIBCMT:strlwr.obj
 0001:000728e6       _strlwr                    100738e6 f   LIBCMT:strlwr.obj
 0001:00072a1a       __mkdir                    10073a1a f   LIBCMT:mkdir.obj
 0001:00072a1a       _mkdir                     10073a1a f   LIBCMT:mkdir.obj
 0001:00072a46       _getcwd                    10073a46 f   LIBCMT:getcwd.obj
 0001:00072a46       __getcwd                   10073a46 f   LIBCMT:getcwd.obj
 0001:00072a6d       __getdcwd                  10073a6d f   LIBCMT:getcwd.obj
 0001:00072a96       __getdcwd_lk               10073a96 f   LIBCMT:getcwd.obj
 0001:00072b6b       __validdrive               10073b6b f   LIBCMT:getcwd.obj
 0001:00072ba2       _chdir                     10073ba2 f   LIBCMT:chdir.obj
 0001:00072ba2       __chdir                    10073ba2 f   LIBCMT:chdir.obj
 0001:00072c28       __mbctoupper               10073c28 f   LIBCMT:mbtoupr.obj
 0001:00072ca4       _CreateDirectoryA@8        10073ca4 f   kernel32:KERNEL32.dll
 0001:00072caa       _GetCurrentDirectoryA@8    10073caa f   kernel32:KERNEL32.dll
 0001:00072cb0       _GetFullPathNameA@16       10073cb0 f   kernel32:KERNEL32.dll
 0001:00072cb6       _GetDriveTypeA@4           10073cb6 f   kernel32:KERNEL32.dll
 0001:00072cbc       _SetCurrentDirectoryA@4    10073cbc f   kernel32:KERNEL32.dll
 0002:00000000       __imp_?g_GetRootPath@@YAXPAD@Z 10076000     engine:Engine.dll
 0002:00000004       __imp_?GetString@KTabFile@@UAEHPAD000K@Z 10076004     engine:Engine.dll
 0002:00000008       __imp_?Clear@KTabFile@@UAEXXZ 10076008     engine:Engine.dll
 0002:0000000c       __imp_?g_GetFullPath@@YAXPAD0@Z 1007600c     engine:Engine.dll
 0002:00000010       __imp_?GetNextKey@KIniFile@@QAEHPBD0PAD@Z 10076010     engine:Engine.dll
 0002:00000014       __imp_?GetNext@KLinkArray@@QBEHH@Z 10076014     engine:Engine.dll
 0002:00000018       __imp_?GetInteger@KTabFile@@UAEHPAD0HPAH@Z 10076018     engine:Engine.dll
 0002:0000001c       __imp_?g_StrCat@@YAXPADPBD@Z 1007601c     engine:Engine.dll
 0002:00000020       __imp_??1KScriptList@@QAE@XZ 10076020     engine:Engine.dll
 0002:00000024       __imp_??0KScriptList@@QAE@XZ 10076024     engine:Engine.dll
 0002:00000028       __imp_?g_GetFilePath@@YAXPAD@Z 10076028     engine:Engine.dll
 0002:0000002c       __imp_?GetInteger2@KIniFile@@QAEXPBD0PAH1@Z 1007602c     engine:Engine.dll
 0002:00000030       __imp_?GetFloat3@KIniFile@@QAEXPBD0PAM@Z 10076030     engine:Engine.dll
 0002:00000034       __imp_?FindRow@KTabFile@@UAEHPAD@Z 10076034     engine:Engine.dll
 0002:00000038       __imp_?g_SetFilePath@@YAXPAD@Z 10076038     engine:Engine.dll
 0002:0000003c       __imp_?GetRect@KIniFile@@QAEXPBD0PAUtagRECT@@@Z 1007603c     engine:Engine.dll
 0002:00000040       __imp_?g_FindDebugWindow@@YAPAUHWND__@@PAD0@Z 10076040     engine:Engine.dll
 0002:00000044       __imp_?g_RandomSeed@@YAXI@Z 10076044     engine:Engine.dll
 0002:00000048       __imp_?FindColumn@KTabFile@@UAEHPAD@Z 10076048     engine:Engine.dll
 0002:0000004c       __imp_?Seek@KPakFile@@QAEKHI@Z 1007604c     engine:Engine.dll
 0002:00000050       __imp_??0KPakFile@@QAE@XZ  10076050     engine:Engine.dll
 0002:00000054       __imp_?Open@KPakFile@@QAEHPBD@Z 10076054     engine:Engine.dll
 0002:00000058       __imp_?Size@KPakFile@@QAEKXZ 10076058     engine:Engine.dll
 0002:0000005c       __imp_?Close@KPakFile@@QAEXXZ 1007605c     engine:Engine.dll
 0002:00000060       __imp_??1KPakFile@@QAE@XZ  10076060     engine:Engine.dll
 0002:00000064       __imp_?Read@KPakFile@@QAEKPAXI@Z 10076064     engine:Engine.dll
 0002:00000068       __imp_?g_Random@@YAII@Z    10076068     engine:Engine.dll
 0002:0000006c       __imp_?g_FileName2Id@@YAKPAD@Z 1007606c     engine:Engine.dll
 0002:00000070       __imp_?GetString@KTabFile@@UAEHHPAD00KH@Z 10076070     engine:Engine.dll
 0002:00000074       __imp_?GetInteger@KTabFile@@UAEHHPADHPAHH@Z 10076074     engine:Engine.dll
 0002:00000078       __imp_??1KTabFile@@UAE@XZ  10076078     engine:Engine.dll
 0002:0000007c       __imp_?g_DebugLog@@YAXPADZZ 1007607c     engine:Engine.dll
 0002:00000080       __imp_?Load@KTabFile@@UAEHPAD@Z 10076080     engine:Engine.dll
 0002:00000084       __imp_??0KTabFile@@QAE@XZ  10076084     engine:Engine.dll
 0002:00000088       __imp_??1KLinkArray@@QAE@XZ 10076088     engine:Engine.dll
 0002:0000008c       __imp_?Insert@KLinkArray@@QAEXH@Z 1007608c     engine:Engine.dll
 0002:00000090       __imp_?Init@KLinkArray@@QAEXH@Z 10076090     engine:Engine.dll
 0002:00000094       __imp_?Remove@KLinkArray@@QAEXH@Z 10076094     engine:Engine.dll
 0002:00000098       __imp_?SafeCallEnd@KLuaScript@@QAEXH@Z 10076098     engine:Engine.dll
 0002:0000009c       __imp_?SafeCallBegin@KLuaScript@@QAEXPAH@Z 1007609c     engine:Engine.dll
 0002:000000a0       __imp_?KSG_StringSkipSymbol@@YA_NPAPBDH@Z 100760a0     engine:Engine.dll
 0002:000000a4       __imp_?KSG_StringGetInt@@YAHPAPBDH@Z 100760a4     engine:Engine.dll
 0002:000000a8       __imp_?GetString@KIniFile@@QAEHPBD00PADK@Z 100760a8     engine:Engine.dll
 0002:000000ac       __imp_?GetInteger@KIniFile@@QAEHPBD0HPAH@Z 100760ac     engine:Engine.dll
 0002:000000b0       __imp_??1KIniFile@@QAE@XZ  100760b0     engine:Engine.dll
 0002:000000b4       __imp_?Load@KIniFile@@QAEHPBD@Z 100760b4     engine:Engine.dll
 0002:000000b8       __imp_??0KIniFile@@QAE@XZ  100760b8     engine:Engine.dll
 0002:000000bc       __imp_?GetString@KTabFile@@UAEHHHPAD0K@Z 100760bc     engine:Engine.dll
 0002:000000c0       __imp_?SetGlobalName@KLuaScript@@QAEXPAD@Z 100760c0     engine:Engine.dll
 0002:000000c4       __imp_?Clear@KIniFile@@QAEXXZ 100760c4     engine:Engine.dll
 0002:000000c8       __imp_?g_StrCmp@@YAHPBD0@Z 100760c8     engine:Engine.dll
 0002:000000cc       __imp_?g_StrLower@@YAXPAD@Z 100760cc     engine:Engine.dll
 0002:000000d0       __imp_?g_StrCpyLen@@YAXPADPBDH@Z 100760d0     engine:Engine.dll
 0002:000000d4       __imp_?GetInteger@KTabFile@@UAEHHHHPAH@Z 100760d4     engine:Engine.dll
 0002:000000d8       __imp_?g_StrCpy@@YAXPADPBD@Z 100760d8     engine:Engine.dll
 0002:000000dc       __imp_?SetScriptName@KLuaScript@@UAEXPAD@Z 100760dc     engine:Engine.dll
 0002:000000e0       __imp_?RegisterFunction@KLuaScript@@UAEHPADPAX@Z 100760e0     engine:Engine.dll
 0002:000000e4       __imp_?CallFunction@KLuaScript@@UAAHPADH0ZZ 100760e4     engine:Engine.dll
 0002:000000e8       __imp_?Execute@KLuaScript@@UAEHXZ 100760e8     engine:Engine.dll
 0002:000000ec       __imp_?Compile@KLuaScript@@UAEHPAD@Z 100760ec     engine:Engine.dll
 0002:000000f0       __imp_?Load@KLuaScript@@UAEHPAD@Z 100760f0     engine:Engine.dll
 0002:000000f4       __imp_?Exit@KLuaScript@@UAEXXZ 100760f4     engine:Engine.dll
 0002:000000f8       __imp_?Init@KLuaScript@@UAEHXZ 100760f8     engine:Engine.dll
 0002:000000fc       __imp_?ExecuteCode@KLuaScript@@QAEHXZ 100760fc     engine:Engine.dll
 0002:00000100       __imp_?LoadBuffer@KLuaScript@@QAEHPAEK@Z 10076100     engine:Engine.dll
 0002:00000104       __imp_?RegisterFunctions@KLuaScript@@QAEHQAUTLua_Funcs@@H@Z 10076104     engine:Engine.dll
 0002:00000108       __imp_??0KLuaScript@@QAE@XZ 10076108     engine:Engine.dll
 0002:0000010c       __imp_??1KLuaScript@@UAE@XZ 1007610c     engine:Engine.dll
 0002:00000110       __imp__TEncodeText         10076110     engine:Engine.dll
 0002:00000114       __imp_?WriteInteger@KIniFile@@QAEXPBD0H@Z 10076114     engine:Engine.dll
 0002:00000118       __imp_?WriteString@KIniFile@@QAEXPBD00@Z 10076118     engine:Engine.dll
 0002:0000011c       __imp_?Save@KIniFile@@QAEHPBD@Z 1007611c     engine:Engine.dll
 0002:00000120       __imp_?g_UnitePathAndName@@YAXPAD00@Z 10076120     engine:Engine.dll
 0002:00000124       __imp_?g_SetRootPath@@YAXPAD@Z 10076124     engine:Engine.dll
 0002:00000128       __imp_??0KPolygon@@QAE@XZ  10076128     engine:Engine.dll
 0002:0000012c       __imp_?Clear@KPolygon@@QAEXXZ 1007612c     engine:Engine.dll
 0002:00000130       __imp_?GetCenterPos@KPolygon@@QAEXPAUtagPOINT@@@Z 10076130     engine:Engine.dll
 0002:00000134       __imp_?IsPointInPolygon@KPolygon@@QAEHUtagPOINT@@@Z 10076134     engine:Engine.dll
 0002:00000138       \177Engine_NULL_THUNK_DATA 10076138     engine:Engine.dll
 0002:0000013c       __imp__GetVersionExA@4     1007613c     kernel32:KERNEL32.dll
 0002:00000140       __imp__GetACP@0            10076140     kernel32:KERNEL32.dll
 0002:00000144       __imp__GetOEMCP@0          10076144     kernel32:KERNEL32.dll
 0002:00000148       __imp__LoadLibraryA@4      10076148     kernel32:KERNEL32.dll
 0002:0000014c       __imp__SetConsoleCtrlHandler@8 1007614c     kernel32:KERNEL32.dll
 0002:00000150       __imp__SetEndOfFile@4      10076150     kernel32:KERNEL32.dll
 0002:00000154       __imp__ReadFile@20         10076154     kernel32:KERNEL32.dll
 0002:00000158       __imp__CompareStringA@24   10076158     kernel32:KERNEL32.dll
 0002:0000015c       __imp__CompareStringW@24   1007615c     kernel32:KERNEL32.dll
 0002:00000160       __imp__SetEnvironmentVariableA@8 10076160     kernel32:KERNEL32.dll
 0002:00000164       __imp__GetLocaleInfoW@16   10076164     kernel32:KERNEL32.dll
 0002:00000168       __imp__CreateDirectoryA@8  10076168     kernel32:KERNEL32.dll
 0002:0000016c       __imp__GetCurrentDirectoryA@8 1007616c     kernel32:KERNEL32.dll
 0002:00000170       __imp__GetFullPathNameA@16 10076170     kernel32:KERNEL32.dll
 0002:00000174       __imp__GetDriveTypeA@4     10076174     kernel32:KERNEL32.dll
 0002:00000178       __imp__GetComputerNameA@8  10076178     kernel32:KERNEL32.dll
 0002:0000017c       __imp__CloseHandle@4       1007617c     kernel32:KERNEL32.dll
 0002:00000180       __imp__SystemTimeToFileTime@8 10076180     kernel32:KERNEL32.dll
 0002:00000184       __imp__LocalFileTimeToFileTime@8 10076184     kernel32:KERNEL32.dll
 0002:00000188       __imp__FileTimeToSystemTime@8 10076188     kernel32:KERNEL32.dll
 0002:0000018c       __imp__GetTickCount@0      1007618c     kernel32:KERNEL32.dll
 0002:00000190       __imp__CreateFileA@28      10076190     kernel32:KERNEL32.dll
 0002:00000194       __imp__SetFilePointer@16   10076194     kernel32:KERNEL32.dll
 0002:00000198       __imp__WriteFile@20        10076198     kernel32:KERNEL32.dll
 0002:0000019c       __imp__GetUserDefaultLCID@0 1007619c     kernel32:KERNEL32.dll
 0002:000001a0       __imp__InterlockedDecrement@4 100761a0     kernel32:KERNEL32.dll
 0002:000001a4       __imp__InitializeCriticalSection@4 100761a4     kernel32:KERNEL32.dll
 0002:000001a8       __imp__DeleteCriticalSection@4 100761a8     kernel32:KERNEL32.dll
 0002:000001ac       __imp__LeaveCriticalSection@4 100761ac     kernel32:KERNEL32.dll
 0002:000001b0       __imp__InterlockedIncrement@4 100761b0     kernel32:KERNEL32.dll
 0002:000001b4       __imp__EnterCriticalSection@4 100761b4     kernel32:KERNEL32.dll
 0002:000001b8       __imp__InterlockedExchange@8 100761b8     kernel32:KERNEL32.dll
 0002:000001bc       __imp__Sleep@4             100761bc     kernel32:KERNEL32.dll
 0002:000001c0       __imp__RtlUnwind@16        100761c0     kernel32:KERNEL32.dll
 0002:000001c4       __imp__HeapAlloc@12        100761c4     kernel32:KERNEL32.dll
 0002:000001c8       __imp__HeapFree@12         100761c8     kernel32:KERNEL32.dll
 0002:000001cc       __imp__HeapReAlloc@16      100761cc     kernel32:KERNEL32.dll
 0002:000001d0       __imp__GetTimeZoneInformation@4 100761d0     kernel32:KERNEL32.dll
 0002:000001d4       __imp__GetSystemTime@4     100761d4     kernel32:KERNEL32.dll
 0002:000001d8       __imp__GetLocalTime@4      100761d8     kernel32:KERNEL32.dll
 0002:000001dc       __imp__GetLastError@0      100761dc     kernel32:KERNEL32.dll
 0002:000001e0       __imp__FindFirstFileA@8    100761e0     kernel32:KERNEL32.dll
 0002:000001e4       __imp__FindNextFileA@8     100761e4     kernel32:KERNEL32.dll
 0002:000001e8       __imp__FindClose@4         100761e8     kernel32:KERNEL32.dll
 0002:000001ec       __imp__FileTimeToLocalFileTime@8 100761ec     kernel32:KERNEL32.dll
 0002:000001f0       __imp__GetCommandLineA@0   100761f0     kernel32:KERNEL32.dll
 0002:000001f4       __imp__GetVersion@0        100761f4     kernel32:KERNEL32.dll
 0002:000001f8       __imp__RaiseException@16   100761f8     kernel32:KERNEL32.dll
 0002:000001fc       __imp__GetProcAddress@8    100761fc     kernel32:KERNEL32.dll
 0002:00000200       __imp__GetModuleHandleA@4  10076200     kernel32:KERNEL32.dll
 0002:00000204       __imp__GetCurrentThreadId@0 10076204     kernel32:KERNEL32.dll
 0002:00000208       __imp__TlsSetValue@8       10076208     kernel32:KERNEL32.dll
 0002:0000020c       __imp__TlsAlloc@0          1007620c     kernel32:KERNEL32.dll
 0002:00000210       __imp__TlsFree@4           10076210     kernel32:KERNEL32.dll
 0002:00000214       __imp__SetLastError@4      10076214     kernel32:KERNEL32.dll
 0002:00000218       __imp__TlsGetValue@4       10076218     kernel32:KERNEL32.dll
 0002:0000021c       __imp__GetCurrentThread@0  1007621c     kernel32:KERNEL32.dll
 0002:00000220       __imp__ExitProcess@4       10076220     kernel32:KERNEL32.dll
 0002:00000224       __imp__TerminateProcess@8  10076224     kernel32:KERNEL32.dll
 0002:00000228       __imp__GetCurrentProcess@0 10076228     kernel32:KERNEL32.dll
 0002:0000022c       __imp__HeapSize@12         1007622c     kernel32:KERNEL32.dll
 0002:00000230       __imp__HeapDestroy@4       10076230     kernel32:KERNEL32.dll
 0002:00000234       __imp__HeapCreate@12       10076234     kernel32:KERNEL32.dll
 0002:00000238       __imp__VirtualFree@12      10076238     kernel32:KERNEL32.dll
 0002:0000023c       __imp__FatalAppExitA@8     1007623c     kernel32:KERNEL32.dll
 0002:00000240       __imp__VirtualAlloc@16     10076240     kernel32:KERNEL32.dll
 0002:00000244       __imp__IsBadWritePtr@8     10076244     kernel32:KERNEL32.dll
 0002:00000248       __imp__WideCharToMultiByte@32 10076248     kernel32:KERNEL32.dll
 0002:0000024c       __imp__MultiByteToWideChar@24 1007624c     kernel32:KERNEL32.dll
 0002:00000250       __imp__LCMapStringA@24     10076250     kernel32:KERNEL32.dll
 0002:00000254       __imp__LCMapStringW@24     10076254     kernel32:KERNEL32.dll
 0002:00000258       __imp__SetHandleCount@4    10076258     kernel32:KERNEL32.dll
 0002:0000025c       __imp__GetStdHandle@4      1007625c     kernel32:KERNEL32.dll
 0002:00000260       __imp__GetFileType@4       10076260     kernel32:KERNEL32.dll
 0002:00000264       __imp__GetStartupInfoA@4   10076264     kernel32:KERNEL32.dll
 0002:00000268       __imp__GetModuleFileNameA@12 10076268     kernel32:KERNEL32.dll
 0002:0000026c       __imp__FreeEnvironmentStringsA@4 1007626c     kernel32:KERNEL32.dll
 0002:00000270       __imp__FreeEnvironmentStringsW@4 10076270     kernel32:KERNEL32.dll
 0002:00000274       __imp__GetEnvironmentStrings@0 10076274     kernel32:KERNEL32.dll
 0002:00000278       __imp__GetEnvironmentStringsW@0 10076278     kernel32:KERNEL32.dll
 0002:0000027c       __imp__SetUnhandledExceptionFilter@4 1007627c     kernel32:KERNEL32.dll
 0002:00000280       __imp__IsBadReadPtr@8      10076280     kernel32:KERNEL32.dll
 0002:00000284       __imp__IsBadCodePtr@4      10076284     kernel32:KERNEL32.dll
 0002:00000288       __imp__UnhandledExceptionFilter@4 10076288     kernel32:KERNEL32.dll
 0002:0000028c       __imp__GetStringTypeA@20   1007628c     kernel32:KERNEL32.dll
 0002:00000290       __imp__GetStringTypeW@16   10076290     kernel32:KERNEL32.dll
 0002:00000294       __imp__SetStdHandle@8      10076294     kernel32:KERNEL32.dll
 0002:00000298       __imp__FlushFileBuffers@4  10076298     kernel32:KERNEL32.dll
 0002:0000029c       __imp__GetCPInfo@8         1007629c     kernel32:KERNEL32.dll
 0002:000002a0       __imp__IsValidLocale@8     100762a0     kernel32:KERNEL32.dll
 0002:000002a4       __imp__IsValidCodePage@4   100762a4     kernel32:KERNEL32.dll
 0002:000002a8       __imp__GetLocaleInfoA@16   100762a8     kernel32:KERNEL32.dll
 0002:000002ac       __imp__EnumSystemLocalesA@8 100762ac     kernel32:KERNEL32.dll
 0002:000002b0       __imp__SetCurrentDirectoryA@4 100762b0     kernel32:KERNEL32.dll
 0002:000002b4       \177KERNEL32_NULL_THUNK_DATA 100762b4     kernel32:KERNEL32.dll
 0002:000002b8       __imp__lua_tostring        100762b8     lualibdll:LuaLibDll.dll
 0002:000002bc       __imp__lua_pushnil         100762bc     lualibdll:LuaLibDll.dll
 0002:000002c0       __imp__lua_dofile          100762c0     lualibdll:LuaLibDll.dll
 0002:000002c4       __imp__lua_rawget          100762c4     lualibdll:LuaLibDll.dll
 0002:000002c8       __imp__lua_pushstring      100762c8     lualibdll:LuaLibDll.dll
 0002:000002cc       __imp__lua_getglobal       100762cc     lualibdll:LuaLibDll.dll
 0002:000002d0       __imp__lua_type            100762d0     lualibdll:LuaLibDll.dll
 0002:000002d4       __imp__lua_pushnumber      100762d4     lualibdll:LuaLibDll.dll
 0002:000002d8       __imp__lua_gettop          100762d8     lualibdll:LuaLibDll.dll
 0002:000002dc       __imp__lua_typename        100762dc     lualibdll:LuaLibDll.dll
 0002:000002e0       __imp__lua_isstring        100762e0     lualibdll:LuaLibDll.dll
 0002:000002e4       __imp__lua_tonumber        100762e4     lualibdll:LuaLibDll.dll
 0002:000002e8       __imp__lua_isnumber        100762e8     lualibdll:LuaLibDll.dll
 0002:000002ec       \177LuaLibDll_NULL_THUNK_DATA 100762ec     lualibdll:LuaLibDll.dll
 0002:000002f0       __imp__MessageBoxA@16      100762f0     user32:USER32.dll
 0002:000002f4       \177USER32_NULL_THUNK_DATA 100762f4     user32:USER32.dll
 0002:000002f8       __imp__inet_addr@4         100762f8     Ws2_32:WS2_32.dll
 0002:000002fc       \177WS2_32_NULL_THUNK_DATA 100762fc     Ws2_32:WS2_32.dll
 0002:0000031c       ??_7KThiefSkill@@6B@       1007631c     KThiefSkill.obj
 0002:00000364       ??_7ISkill@@6B@            10076364     KThiefSkill.obj
 0002:000003b0       __real@8@4002a000000000000000 100763b0     KThiefSkill.obj
 0002:000003b8       __real@8@3ffbccccccccccccd000 100763b8     KThiefSkill.obj
 0002:000003c0       ??_7KMissle@@6B@           100763c0     KMissle.obj
 0002:000003c4       ??_7KIndexNode@@6B@        100763c4     KMissle.obj
 0002:000003c8       ??_7KNode@@6B@             100763c8     KMissle.obj
 0002:000003cc       ??_7KWorldMsgNode@@6B@     100763cc     KMissle.obj
 0002:000003d0       ??_7KSkill@@6B@            100763d0     KSkills.obj
 0002:00000418       ??_7KStateNode@@6B@        10076418     KNpc.obj
 0002:0000041c       __real@4@3ff8a3d70a3d70a3d800 1007641c     KNpcDeathCalcExp.obj
 0002:00000420       __real@8@4005c800000000000000 10076420     KNpcDeathCalcExp.obj
 0002:00000428       ??_SKLuaScript@@6B@        10076428     KPlayer.obj
 0002:00000450       _IID_IDocHostUIHandlerDispatch 10076450     KPlayerChat.obj
 0002:00000460       _IID_IInternalConnection   10076460     KPlayerChat.obj
 0002:00000470       _IID_IAxWinAmbientDispatch 10076470     KPlayerChat.obj
 0002:00000480       _IID_IAxWinHostWindow      10076480     KPlayerChat.obj
 0002:00000490       _IID_IRegistrar            10076490     KPlayerChat.obj
 0002:000004a0       _CLSID_Registrar           100764a0     KPlayerChat.obj
 0002:000004b0       _LIBID_ATLLib              100764b0     KPlayerChat.obj
 0002:000004c0       ??_7CChatFriend@@6B@       100764c0     KPlayerChat.obj
 0002:000004c4       ??_7KBasicPropertyTable@@6B@ 100764c4     KBasPropTbl.obj
 0002:000004cc       ??_7KBPT_Quest@@6B@        100764cc     KBasPropTbl.obj
 0002:000004d4       ??_7KBPT_Using@@6B@        100764d4     KBasPropTbl.obj
 0002:000004dc       ??_7KBPT_Mat@@6B@          100764dc     KBasPropTbl.obj
 0002:000004e4       ??_7KBPT_Event@@6B@        100764e4     KBasPropTbl.obj
 0002:000004ec       ??_7KBPT_Medicine@@6B@     100764ec     KBasPropTbl.obj
 0002:000004f4       ??_7KBPT_Equipment@@6B@    100764f4     KBasPropTbl.obj
 0002:000004fc       ??_7KBPT_Equipment_Gold@@6B@ 100764fc     KBasPropTbl.obj
 0002:00000504       ??_7KBPT_MagicAttrib_TF@@6B@ 10076504     KBasPropTbl.obj
 0002:0000050c       ??_7?$KMissionArray@VKMission@@$01@@6B@ 1007650c     KSubWorld.obj
 0002:00000510       ??_7?$KLinkArrayTemplate@VKMission@@$01@@6B@ 10076510     KSubWorld.obj
 0002:00000514       __real@4@40048000000000000000 10076514     KSubWorld.obj
 0002:00000518       ??_7?$_KMissionPlayerArray@UTMissionPlayerInfo@@$0BJA@@@6B@ 10076518     KSubWorld.obj
 0002:0000051c       ??_7?$KLinkArrayTemplate@UTMissionPlayerInfo@@$0BJA@@@6B@ 1007651c     KSubWorld.obj
 0002:00000520       ??_7?$KTimerFunArray@VKTimerTaskFun@@$03$1?g_MissionTimerCallBackFun@@YAHPAXPAD@Z@@6B@ 10076520     KSubWorld.obj
 0002:00000524       ??_7?$KLinkArrayTemplate@VKTimerTaskFun@@$03@@6B@ 10076524     KSubWorld.obj
 0002:00000528       __real@8@00000000000000000000 10076528     ScriptFuns.obj
 0002:00000530       ??_7KScriptValueSet@@6B@   10076530     KScriptValueSet.obj
 0002:00000534       ??_7TIntegerValueNode@@6B@ 10076534     KScriptValueSet.obj
 0002:00000538       ??_7TStringValueNode@@6B@  10076538     KScriptValueSet.obj
 0002:0000053c       ??_7CoreServerShell@@6B@   1007653c     CoreServerShell.obj
 0002:000005e0       ?MAGIC_ATTRIB_STRING@@3QAY0GE@$$CBDA 100765e0     KMagicDesc.obj
 0002:000057e8       ??_7KTimerTaskFun@@6B@     1007b7e8     KTaskFuns.obj
 0002:000057f0       ??_7CException@Win32@OnlineGameLib@@6B@ 1007b7f0     common:Buffer.obj
 0002:000057fc       ?_C@?1??_Nullstr@?$basic_string@DU?$char_traits@D@std@@V?$allocator@D@2@@std@@CAPBDXZ@4DB 1007b7fc     common:Buffer.obj
 0002:00005800       ?npos@?$basic_string@DU?$char_traits@D@std@@V?$allocator@D@2@@std@@2IB 1007b800     common:Buffer.obj
 0002:00005804       ??_7Allocator@CBuffer@Win32@OnlineGameLib@@6B@ 1007b804     common:Buffer.obj
 0002:00005814       ??_7CPackager@Win32@OnlineGameLib@@6B@ 1007b814     common:Buffer.obj
 0002:0000581c       ??_7length_error@std@@6B@  1007b81c     libcpmt:string.obj
 0002:00005828       ??_C@_0BA@HHMB@string?5too?5long?$AA@ 1007b828     libcpmt:string.obj
 0002:0000583c       ??_7logic_error@std@@6B@   1007b83c     libcpmt:string.obj
 0002:0000584c       ??_7out_of_range@std@@6B@  1007b84c     libcpmt:string.obj
 0002:00005858       ??_C@_0BI@EEBE@invalid?5string?5position?$AA@ 1007b858     libcpmt:string.obj
 0002:000058a0       ??_7type_info@@6B@         1007b8a0     LIBCMT:typinfo.obj
 0002:000058cc       ??_7exception@@6B@         1007b8cc     LIBCMT:stdexcpt.obj
 0002:000058d4       ??_C@_0BC@OIDF@Unknown?5exception?$AA@ 1007b8d4     LIBCMT:stdexcpt.obj
 0002:000058e8       ___lookuptable             1007b8e8     LIBCMT:output.obj
 0002:00005944       ??_C@_1O@POHA@?$AA?$CI?$AAn?$AAu?$AAl?$AAl?$AA?$CJ?$AA?$AA@ 1007b944     LIBCMT:output.obj
 0002:00005954       ??_C@_06ONKE@?$CInull?$CJ?$AA@ 1007b954     LIBCMT:output.obj
 0002:00005960       __real@8@3fff8000000000000000 1007b960     LIBCMT:testfdiv.obj
 0002:00005968       __real@8@4015800bf60000000000 1007b968     LIBCMT:testfdiv.obj
 0002:00005970       __real@8@4014bffffc0000000000 1007b970     LIBCMT:testfdiv.obj
 0002:00005978       ??_C@_0BK@JEGK@IsProcessorFeaturePresent?$AA@ 1007b978     LIBCMT:testfdiv.obj
 0002:00005994       ??_C@_08OBID@KERNEL32?$AA@ 1007b994     LIBCMT:testfdiv.obj
 0002:000059a0       ??_C@_05OFLO@e?$CL000?$AA@ 1007b9a0     LIBCMT:cvt.obj
 0002:00005a20       ___dnames                  1007ba20     LIBCMT:timeset.obj
 0002:00005a38       ___mnames                  1007ba38     LIBCMT:timeset.obj
 0002:00005a60       ??_C@_02JHIA@TZ?$AA@       1007ba60     LIBCMT:tzset.obj
 0002:00005a64       ??_C@_01A@?$AA?$AA@        1007ba64     LIBCMT:a_map.obj
 0002:00005a68       ??_C@_13A@?$AA?$AA?$AA?$AA@ 1007ba68     LIBCMT:a_map.obj
 0002:00005a88       ??_C@_07PCLE@LC_TIME?$AA@  1007ba88     LIBCMT:setlocal.obj
 0002:00005a90       ??_C@_0L@NKG@LC_NUMERIC?$AA@ 1007ba90     LIBCMT:setlocal.obj
 0002:00005a9c       ??_C@_0M@CBIH@LC_MONETARY?$AA@ 1007ba9c     LIBCMT:setlocal.obj
 0002:00005aa8       ??_C@_08LFGE@LC_CTYPE?$AA@ 1007baa8     LIBCMT:setlocal.obj
 0002:00005ab4       ??_C@_0L@CFLC@LC_COLLATE?$AA@ 1007bab4     LIBCMT:setlocal.obj
 0002:00005ac0       ??_C@_06GCPK@LC_ALL?$AA@   1007bac0     LIBCMT:setlocal.obj
 0002:00005ac8       ??_C@_01FAJB@?$DL?$AA@     1007bac8     LIBCMT:setlocal.obj
 0002:00005acc       ??_C@_02BGDO@?$DN?$DL?$AA@ 1007bacc     LIBCMT:setlocal.obj
 0002:00005ad0       ??_C@_01KPOD@?$DN?$AA@     1007bad0     LIBCMT:setlocal.obj
 0002:00005ad4       ??_C@_03DBOJ@_?4?0?$AA@    1007bad4     LIBCMT:setlocal.obj
 0002:00005ad8       ??_C@_01NON@_?$AA@         1007bad8     LIBCMT:setlocal.obj
 0002:00005adc       ??_C@_0P@GGKG@runtime?5error?5?$AA@ 1007badc     LIBCMT:crt0msg.obj
 0002:00005aec       ??_C@_02PIMC@?$AN?6?$AA@   1007baec     LIBCMT:crt0msg.obj
 0002:00005af0       ??_C@_0O@DELO@TLOSS?5error?$AN?6?$AA@ 1007baf0     LIBCMT:crt0msg.obj
 0002:00005b00       ??_C@_0N@OMLL@SING?5error?$AN?6?$AA@ 1007bb00     LIBCMT:crt0msg.obj
 0002:00005b10       ??_C@_0P@OJAK@DOMAIN?5error?$AN?6?$AA@ 1007bb10     LIBCMT:crt0msg.obj
 0002:00005b20       ??_C@_0CF@EANP@R6028?$AN?6?9?5unable?5to?5initialize?5he@ 1007bb20     LIBCMT:crt0msg.obj
 0002:00005b48       ??_C@_0DF@ECGN@R6027?$AN?6?9?5not?5enough?5space?5for?5lo@ 1007bb48     LIBCMT:crt0msg.obj
 0002:00005b80       ??_C@_0DF@FKAC@R6026?$AN?6?9?5not?5enough?5space?5for?5st@ 1007bb80     LIBCMT:crt0msg.obj
 0002:00005bb8       ??_C@_0CG@DPMN@R6025?$AN?6?9?5pure?5virtual?5function?5c@ 1007bbb8     LIBCMT:crt0msg.obj
 0002:00005be0       ??_C@_0DF@CKIP@R6024?$AN?6?9?5not?5enough?5space?5for?5_o@ 1007bbe0     LIBCMT:crt0msg.obj
 0002:00005c18       ??_C@_0CJ@GGOE@R6019?$AN?6?9?5unable?5to?5open?5console?5@ 1007bc18     LIBCMT:crt0msg.obj
 0002:00005c44       ??_C@_0CB@LBOB@R6018?$AN?6?9?5unexpected?5heap?5error?$AN?6@ 1007bc44     LIBCMT:crt0msg.obj
 0002:00005c68       ??_C@_0CN@FPEG@R6017?$AN?6?9?5unexpected?5multithread?5@ 1007bc68     LIBCMT:crt0msg.obj
 0002:00005c98       ??_C@_0CM@OBIC@R6016?$AN?6?9?5not?5enough?5space?5for?5th@ 1007bc98     LIBCMT:crt0msg.obj
 0002:00005cc4       ??_C@_0CB@HPAL@?$AN?6abnormal?5program?5termination?$AN?6@ 1007bcc4     LIBCMT:crt0msg.obj
 0002:00005ce8       ??_C@_0CM@JOOB@R6009?$AN?6?9?5not?5enough?5space?5for?5en@ 1007bce8     LIBCMT:crt0msg.obj
 0002:00005d14       ??_C@_0CK@OIBL@R6008?$AN?6?9?5not?5enough?5space?5for?5ar@ 1007bd14     LIBCMT:crt0msg.obj
 0002:00005d40       ??_C@_0CF@LKPB@R6002?$AN?6?9?5floating?5point?5not?5load@ 1007bd40     LIBCMT:crt0msg.obj
 0002:00005d68       ??_C@_0CF@JPDF@Microsoft?5Visual?5C?$CL?$CL?5Runtime?5Lib@ 1007bd68     LIBCMT:crt0msg.obj
 0002:00005d90       ??_C@_02JJJH@?6?6?$AA@     1007bd90     LIBCMT:crt0msg.obj
 0002:00005d94       ??_C@_0BK@DEOK@Runtime?5Error?$CB?6?6Program?3?5?$AA@ 1007bd94     LIBCMT:crt0msg.obj
 0002:00005db0       ??_C@_03NAME@?4?4?4?$AA@   1007bdb0     LIBCMT:crt0msg.obj
 0002:00005db4       ??_C@_0BH@NNCD@?$DMprogram?5name?5unknown?$DO?$AA@ 1007bdb4     LIBCMT:crt0msg.obj
 0002:00005ddc       ??_C@_08OBJD@Paraguay?$AA@ 1007bddc     LIBCMT:getqloc.obj
 0002:00005de8       ??_C@_07GLKH@Uruguay?$AA@  1007bde8     LIBCMT:getqloc.obj
 0002:00005df0       ??_C@_05FPFC@Chile?$AA@    1007bdf0     LIBCMT:getqloc.obj
 0002:00005df8       ??_C@_07IIGF@Ecuador?$AA@  1007bdf8     LIBCMT:getqloc.obj
 0002:00005e00       ??_C@_09PKAL@Argentina?$AA@ 1007be00     LIBCMT:getqloc.obj
 0002:00005e0c       ??_C@_04LKAH@Peru?$AA@     1007be0c     LIBCMT:getqloc.obj
 0002:00005e14       ??_C@_08NEEM@Colombia?$AA@ 1007be14     LIBCMT:getqloc.obj
 0002:00005e20       ??_C@_09ODEB@Venezuela?$AA@ 1007be20     LIBCMT:getqloc.obj
 0002:00005e2c       ??_C@_0BD@CLEL@Dominican?5Republic?$AA@ 1007be2c     LIBCMT:getqloc.obj
 0002:00005e40       ??_C@_0N@MDGL@South?5Africa?$AA@ 1007be40     LIBCMT:getqloc.obj
 0002:00005e50       ??_C@_06NKBG@Panama?$AA@   1007be50     LIBCMT:getqloc.obj
 0002:00005e58       ??_C@_0L@BMHO@Luxembourg?$AA@ 1007be58     LIBCMT:getqloc.obj
 0002:00005e64       ??_C@_0L@IMDK@Costa?5Rica?$AA@ 1007be64     LIBCMT:getqloc.obj
 0002:00005e70       ??_C@_0M@BLJF@Switzerland?$AA@ 1007be70     LIBCMT:getqloc.obj
 0002:00005e7c       ??_C@_09KBOL@Guatemala?$AA@ 1007be7c     LIBCMT:getqloc.obj
 0002:00005e88       ??_C@_06JNAK@Canada?$AA@   1007be88     LIBCMT:getqloc.obj
 0002:00005e90       ??_C@_0BG@OLLP@Spanish?5?9?5Modern?5Sort?$AA@ 1007be90     LIBCMT:getqloc.obj
 0002:00005ea8       ??_C@_09IDKE@Australia?$AA@ 1007bea8     LIBCMT:getqloc.obj
 0002:00005eb4       ??_C@_07JJJJ@English?$AA@  1007beb4     LIBCMT:getqloc.obj
 0002:00005ebc       ??_C@_07NMDO@Austria?$AA@  1007bebc     LIBCMT:getqloc.obj
 0002:00005ec4       ??_C@_06DEFE@German?$AA@   1007bec4     LIBCMT:getqloc.obj
 0002:00005ecc       ??_C@_07JAIH@Belgium?$AA@  1007becc     LIBCMT:getqloc.obj
 0002:00005ed4       ??_C@_06BNLJ@Mexico?$AA@   1007bed4     LIBCMT:getqloc.obj
 0002:00005edc       ??_C@_07JHAG@Spanish?$AA@  1007bedc     LIBCMT:getqloc.obj
 0002:00005ee4       ??_C@_06DADE@Basque?$AA@   1007bee4     LIBCMT:getqloc.obj
 0002:00005eec       ??_C@_06ENFP@Sweden?$AA@   1007beec     LIBCMT:getqloc.obj
 0002:00005ef4       ??_C@_07JPMH@Swedish?$AA@  1007bef4     LIBCMT:getqloc.obj
 0002:00005efc       ??_C@_07IEKF@Iceland?$AA@  1007befc     LIBCMT:getqloc.obj
 0002:00005f04       ??_C@_09KNEA@Icelandic?$AA@ 1007bf04     LIBCMT:getqloc.obj
 0002:00005f10       ??_C@_06IJOD@France?$AA@   1007bf10     LIBCMT:getqloc.obj
 0002:00005f18       ??_C@_06EINI@French?$AA@   1007bf18     LIBCMT:getqloc.obj
 0002:00005f20       ??_C@_07FOOE@Finland?$AA@  1007bf20     LIBCMT:getqloc.obj
 0002:00005f28       ??_C@_07OJOM@Finnish?$AA@  1007bf28     LIBCMT:getqloc.obj
 0002:00005f30       ??_C@_05FFAC@Spain?$AA@    1007bf30     LIBCMT:getqloc.obj
 0002:00005f38       ??_C@_0BL@BIHM@Spanish?5?9?5Traditional?5Sort?$AA@ 1007bf38     LIBCMT:getqloc.obj
 0002:00005f54       ??_C@_0O@GLHB@united?9states?$AA@ 1007bf54     LIBCMT:getqloc.obj
 0002:00005f64       ??_C@_0P@IIKK@united?9kingdom?$AA@ 1007bf64     LIBCMT:getqloc.obj
 0002:00005f74       ??_C@_0BC@FHBO@trinidad?5?$CG?5tobago?$AA@ 1007bf74     LIBCMT:getqloc.obj
 0002:00005f88       ??_C@_0M@BDFM@south?9korea?$AA@ 1007bf88     LIBCMT:getqloc.obj
 0002:00005f94       ??_C@_0N@CKFA@south?9africa?$AA@ 1007bf94     LIBCMT:getqloc.obj
 0002:00005fa4       ??_C@_0M@HNHN@south?5korea?$AA@ 1007bfa4     LIBCMT:getqloc.obj
 0002:00005fb0       ??_C@_0N@MKDO@south?5africa?$AA@ 1007bfb0     LIBCMT:getqloc.obj
 0002:00005fc0       ??_C@_06KFFJ@slovak?$AA@   1007bfc0     LIBCMT:getqloc.obj
 0002:00005fc8       ??_C@_0M@NMAC@puerto?9rico?$AA@ 1007bfc8     LIBCMT:getqloc.obj
 0002:00005fd4       ??_C@_08EJOH@pr?9china?$AA@ 1007bfd4     LIBCMT:getqloc.obj
 0002:00005fe0       ??_C@_08CHMG@pr?5china?$AA@ 1007bfe0     LIBCMT:getqloc.obj
 0002:00005fec       ??_C@_02OCJK@nz?$AA@       1007bfec     LIBCMT:getqloc.obj
 0002:00005ff0       ??_C@_0M@MMKA@new?9zealand?$AA@ 1007bff0     LIBCMT:getqloc.obj
 0002:00005ffc       ??_C@_09MGEH@hong?9kong?$AA@ 1007bffc     LIBCMT:getqloc.obj
 0002:00006008       ??_C@_07CCAK@holland?$AA@  1007c008     LIBCMT:getqloc.obj
 0002:00006010       ??_C@_0O@MEPL@great?5britain?$AA@ 1007c010     LIBCMT:getqloc.obj
 0002:00006020       ??_C@_07LGIB@england?$AA@  1007c020     LIBCMT:getqloc.obj
 0002:00006028       ??_C@_05BMOA@czech?$AA@    1007c028     LIBCMT:getqloc.obj
 0002:00006030       ??_C@_05NMPB@china?$AA@    1007c030     LIBCMT:getqloc.obj
 0002:00006038       ??_C@_07GN@britain?$AA@    1007c038     LIBCMT:getqloc.obj
 0002:00006040       ??_C@_07DLAK@america?$AA@  1007c040     LIBCMT:getqloc.obj
 0002:00006048       ??_C@_03IPEP@usa?$AA@      1007c048     LIBCMT:getqloc.obj
 0002:0000604c       ??_C@_02PILH@us?$AA@       1007c04c     LIBCMT:getqloc.obj
 0002:00006050       ??_C@_02FHP@uk?$AA@        1007c050     LIBCMT:getqloc.obj
 0002:00006054       ??_C@_05DEAI@swiss?$AA@    1007c054     LIBCMT:getqloc.obj
 0002:0000605c       ??_C@_0BA@LIAF@swedish?9finland?$AA@ 1007c05c     LIBCMT:getqloc.obj
 0002:0000606c       ??_C@_0BC@FMEG@spanish?9venezuela?$AA@ 1007c06c     LIBCMT:getqloc.obj
 0002:00006080       ??_C@_0BA@BNMG@spanish?9uruguay?$AA@ 1007c080     LIBCMT:getqloc.obj
 0002:00006090       ??_C@_0BE@BKDJ@spanish?9puerto?5rico?$AA@ 1007c090     LIBCMT:getqloc.obj
 0002:000060a4       ??_C@_0N@JIBL@spanish?9peru?$AA@ 1007c0a4     LIBCMT:getqloc.obj
 0002:000060b4       ??_C@_0BB@OGOF@spanish?9paraguay?$AA@ 1007c0b4     LIBCMT:getqloc.obj
 0002:000060c8       ??_C@_0P@LLFA@spanish?9panama?$AA@ 1007c0c8     LIBCMT:getqloc.obj
 0002:000060d8       ??_C@_0BC@BBJM@spanish?9nicaragua?$AA@ 1007c0d8     LIBCMT:getqloc.obj
 0002:000060ec       ??_C@_0P@NJBN@spanish?9modern?$AA@ 1007c0ec     LIBCMT:getqloc.obj
 0002:000060fc       ??_C@_0BA@NHDN@spanish?9mexican?$AA@ 1007c0fc     LIBCMT:getqloc.obj
 0002:0000610c       ??_C@_0BB@JHOJ@spanish?9honduras?$AA@ 1007c10c     LIBCMT:getqloc.obj
 0002:00006120       ??_C@_0BC@BOOM@spanish?9guatemala?$AA@ 1007c120     LIBCMT:getqloc.obj
 0002:00006134       ??_C@_0BE@EELI@spanish?9el?5salvador?$AA@ 1007c134     LIBCMT:getqloc.obj
 0002:00006148       ??_C@_0BA@POAE@spanish?9ecuador?$AA@ 1007c148     LIBCMT:getqloc.obj
 0002:00006158       ??_C@_0BL@LDKN@spanish?9dominican?5republic?$AA@ 1007c158     LIBCMT:getqloc.obj
 0002:00006174       ??_C@_0BD@HPMH@spanish?9costa?5rica?$AA@ 1007c174     LIBCMT:getqloc.obj
 0002:00006188       ??_C@_0BB@NDDK@spanish?9colombia?$AA@ 1007c188     LIBCMT:getqloc.obj
 0002:0000619c       ??_C@_0O@BJHA@spanish?9chile?$AA@ 1007c19c     LIBCMT:getqloc.obj
 0002:000061ac       ??_C@_0BA@OBNG@spanish?9bolivia?$AA@ 1007c1ac     LIBCMT:getqloc.obj
 0002:000061bc       ??_C@_0BC@EFAM@spanish?9argentina?$AA@ 1007c1bc     LIBCMT:getqloc.obj
 0002:000061d0       ??_C@_0BF@KMMM@portuguese?9brazilian?$AA@ 1007c1d0     LIBCMT:getqloc.obj
 0002:000061e8       ??_C@_0BC@BAAE@norwegian?9nynorsk?$AA@ 1007c1e8     LIBCMT:getqloc.obj
 0002:000061fc       ??_C@_0BB@PBHK@norwegian?9bokmal?$AA@ 1007c1fc     LIBCMT:getqloc.obj
 0002:00006210       ??_C@_09EHKL@norwegian?$AA@ 1007c210     LIBCMT:getqloc.obj
 0002:0000621c       ??_C@_0O@BEAN@italian?9swiss?$AA@ 1007c21c     LIBCMT:getqloc.obj
 0002:0000622c       ??_C@_0O@OIFK@irish?9english?$AA@ 1007c22c     LIBCMT:getqloc.obj
 0002:0000623c       ??_C@_0N@NBPL@german?9swiss?$AA@ 1007c23c     LIBCMT:getqloc.obj
 0002:0000624c       ??_C@_0BC@ICFJ@german?9luxembourg?$AA@ 1007c24c     LIBCMT:getqloc.obj
 0002:00006260       ??_C@_0BE@GGPC@german?9lichtenstein?$AA@ 1007c260     LIBCMT:getqloc.obj
 0002:00006274       ??_C@_0BA@MKDC@german?9austrian?$AA@ 1007c274     LIBCMT:getqloc.obj
 0002:00006284       ??_C@_0N@ODNB@french?9swiss?$AA@ 1007c284     LIBCMT:getqloc.obj
 0002:00006294       ??_C@_0BC@MGCM@french?9luxembourg?$AA@ 1007c294     LIBCMT:getqloc.obj
 0002:000062a8       ??_C@_0BA@NABK@french?9canadian?$AA@ 1007c2a8     LIBCMT:getqloc.obj
 0002:000062b8       ??_C@_0P@CJNO@french?9belgian?$AA@ 1007c2b8     LIBCMT:getqloc.obj
 0002:000062c8       ??_C@_0M@LJOL@english?9usa?$AA@ 1007c2c8     LIBCMT:getqloc.obj
 0002:000062d4       ??_C@_0L@FMNC@english?9us?$AA@ 1007c2d4     LIBCMT:getqloc.obj
 0002:000062e0       ??_C@_0L@KBBK@english?9uk?$AA@ 1007c2e0     LIBCMT:getqloc.obj
 0002:000062ec       ??_C@_0BK@NDDE@english?9trinidad?5y?5tobago?$AA@ 1007c2ec     LIBCMT:getqloc.obj
 0002:00006308       ??_C@_0BF@LKML@english?9south?5africa?$AA@ 1007c308     LIBCMT:getqloc.obj
 0002:00006320       ??_C@_0L@EGPP@english?9nz?$AA@ 1007c320     LIBCMT:getqloc.obj
 0002:0000632c       ??_C@_0BA@HLH@english?9jamaica?$AA@ 1007c32c     LIBCMT:getqloc.obj
 0002:0000633c       ??_C@_0M@PMJI@english?9ire?$AA@ 1007c33c     LIBCMT:getqloc.obj
 0002:00006348       ??_C@_0BC@HINE@english?9caribbean?$AA@ 1007c348     LIBCMT:getqloc.obj
 0002:0000635c       ??_C@_0M@DCFH@english?9can?$AA@ 1007c35c     LIBCMT:getqloc.obj
 0002:00006368       ??_C@_0P@DGHK@english?9belize?$AA@ 1007c368     LIBCMT:getqloc.obj
 0002:00006378       ??_C@_0M@FLHK@english?9aus?$AA@ 1007c378     LIBCMT:getqloc.obj
 0002:00006384       ??_C@_0BB@HNCK@english?9american?$AA@ 1007c384     LIBCMT:getqloc.obj
 0002:00006398       ??_C@_0O@PAMI@dutch?9belgian?$AA@ 1007c398     LIBCMT:getqloc.obj
 0002:000063a8       ??_C@_0BE@FPEJ@chinese?9traditional?$AA@ 1007c3a8     LIBCMT:getqloc.obj
 0002:000063bc       ??_C@_0BC@CHFL@chinese?9singapore?$AA@ 1007c3bc     LIBCMT:getqloc.obj
 0002:000063d0       ??_C@_0BD@DCMH@chinese?9simplified?$AA@ 1007c3d0     LIBCMT:getqloc.obj
 0002:000063e4       ??_C@_0BB@JMOE@chinese?9hongkong?$AA@ 1007c3e4     LIBCMT:getqloc.obj
 0002:000063f8       ??_C@_07NGFN@chinese?$AA@  1007c3f8     LIBCMT:getqloc.obj
 0002:00006400       ??_C@_03PCOI@chi?$AA@      1007c400     LIBCMT:getqloc.obj
 0002:00006404       ??_C@_03FIHP@chh?$AA@      1007c404     LIBCMT:getqloc.obj
 0002:00006408       ??_C@_08HFLO@canadian?$AA@ 1007c408     LIBCMT:getqloc.obj
 0002:00006414       ??_C@_07INIJ@belgian?$AA@  1007c414     LIBCMT:getqloc.obj
 0002:0000641c       ??_C@_0L@LCCA@australian?$AA@ 1007c41c     LIBCMT:getqloc.obj
 0002:00006428       ??_C@_0BB@BJIO@american?9english?$AA@ 1007c428     LIBCMT:getqloc.obj
 0002:0000643c       ??_C@_0BB@DAGO@american?5english?$AA@ 1007c43c     LIBCMT:getqloc.obj
 0002:00006450       ??_C@_08HENB@american?$AA@ 1007c450     LIBCMT:getqloc.obj
 0002:0000645c       ??_C@_03DGJE@OCP?$AA@      1007c45c     LIBCMT:getqloc.obj
 0002:00006460       ??_C@_03EKFG@ACP?$AA@      1007c460     LIBCMT:getqloc.obj
 0002:00006464       ??_C@_0BD@NJFP@GetLastActivePopup?$AA@ 1007c464     LIBCMT:crtmbox.obj
 0002:00006478       ??_C@_0BA@GILI@GetActiveWindow?$AA@ 1007c478     LIBCMT:crtmbox.obj
 0002:00006488       ??_C@_0M@PKCK@MessageBoxA?$AA@ 1007c488     LIBCMT:crtmbox.obj
 0002:00006494       ??_C@_0L@HKL@user32?4dll?$AA@ 1007c494     LIBCMT:crtmbox.obj
 0002:000064a0       ??_C@_06PAPI@1?$CDQNAN?$AA@ 1007c4a0     LIBCMT:x10fout.obj
 0002:000064a8       ??_C@_05BGNL@1?$CDINF?$AA@ 1007c4a8     LIBCMT:x10fout.obj
 0002:000064b0       ??_C@_05EDPF@1?$CDIND?$AA@ 1007c4b0     LIBCMT:x10fout.obj
 0002:000064b8       ??_C@_06LKFM@1?$CDSNAN?$AA@ 1007c4b8     LIBCMT:x10fout.obj
 0002:000064c0       ??_C@_07CJME@H?3mm?3ss?$AA@ 1007c4c0     LIBCMT:strftime.obj
 0002:000064c8       ??_C@_0BE@MHI@dddd?0?5MMMM?5dd?0?5yyyy?$AA@ 1007c4c8     LIBCMT:strftime.obj
 0002:000064dc       ??_C@_06HCAD@M?1d?1yy?$AA@ 1007c4dc     LIBCMT:strftime.obj
 0002:000064e4       ??_C@_02DBLP@PM?$AA@       1007c4e4     LIBCMT:strftime.obj
 0002:000064e8       ??_C@_02ENLM@AM?$AA@       1007c4e8     LIBCMT:strftime.obj
 0002:000064ec       ??_C@_08LIDF@December?$AA@ 1007c4ec     LIBCMT:strftime.obj
 0002:000064f8       ??_C@_08NJLI@November?$AA@ 1007c4f8     LIBCMT:strftime.obj
 0002:00006504       ??_C@_07IAMM@October?$AA@  1007c504     LIBCMT:strftime.obj
 0002:0000650c       ??_C@_09MKGD@September?$AA@ 1007c50c     LIBCMT:strftime.obj
 0002:00006518       ??_C@_06PADP@August?$AA@   1007c518     LIBCMT:strftime.obj
 0002:00006520       ??_C@_04PIJO@July?$AA@     1007c520     LIBCMT:strftime.obj
 0002:00006528       ??_C@_04ICFP@June?$AA@     1007c528     LIBCMT:strftime.obj
 0002:00006530       ??_C@_05JFGC@April?$AA@    1007c530     LIBCMT:strftime.obj
 0002:00006538       ??_C@_05FGPD@March?$AA@    1007c538     LIBCMT:strftime.obj
 0002:00006540       ??_C@_08PGBA@February?$AA@ 1007c540     LIBCMT:strftime.obj
 0002:0000654c       ??_C@_07BPKJ@January?$AA@  1007c54c     LIBCMT:strftime.obj
 0002:00006554       ??_C@_03PGJO@Dec?$AA@      1007c554     LIBCMT:strftime.obj
 0002:00006558       ??_C@_03PDLM@Nov?$AA@      1007c558     LIBCMT:strftime.obj
 0002:0000655c       ??_C@_03BLHK@Oct?$AA@      1007c55c     LIBCMT:strftime.obj
 0002:00006560       ??_C@_03DPFM@Sep?$AA@      1007c560     LIBCMT:strftime.obj
 0002:00006564       ??_C@_03CMCH@Aug?$AA@      1007c564     LIBCMT:strftime.obj
 0002:00006568       ??_C@_03OBKI@Jul?$AA@      1007c568     LIBCMT:strftime.obj
 0002:0000656c       ??_C@_03LEIG@Jun?$AA@      1007c56c     LIBCMT:strftime.obj
 0002:00006570       ??_C@_03MGHB@May?$AA@      1007c570     LIBCMT:strftime.obj
 0002:00006574       ??_C@_03MJJM@Apr?$AA@      1007c574     LIBCMT:strftime.obj
 0002:00006578       ??_C@_03GNHA@Mar?$AA@      1007c578     LIBCMT:strftime.obj
 0002:0000657c       ??_C@_03PICE@Feb?$AA@      1007c57c     LIBCMT:strftime.obj
 0002:00006580       ??_C@_03IEIF@Jan?$AA@      1007c580     LIBCMT:strftime.obj
 0002:00006584       ??_C@_08FAKH@Saturday?$AA@ 1007c584     LIBCMT:strftime.obj
 0002:00006590       ??_C@_06ONCK@Friday?$AA@   1007c590     LIBCMT:strftime.obj
 0002:00006598       ??_C@_08CCFO@Thursday?$AA@ 1007c598     LIBCMT:strftime.obj
 0002:000065a4       ??_C@_09PBIN@Wednesday?$AA@ 1007c5a4     LIBCMT:strftime.obj
 0002:000065b0       ??_C@_07BMBC@Tuesday?$AA@  1007c5b0     LIBCMT:strftime.obj
 0002:000065b8       ??_C@_06CHLK@Monday?$AA@   1007c5b8     LIBCMT:strftime.obj
 0002:000065c0       ??_C@_06OOEM@Sunday?$AA@   1007c5c0     LIBCMT:strftime.obj
 0002:000065c8       ??_C@_03MPKK@Sat?$AA@      1007c5c8     LIBCMT:strftime.obj
 0002:000065cc       ??_C@_03FINJ@Fri?$AA@      1007c5cc     LIBCMT:strftime.obj
 0002:000065d0       ??_C@_03HIKC@Thu?$AA@      1007c5d0     LIBCMT:strftime.obj
 0002:000065d4       ??_C@_03HECK@Wed?$AA@      1007c5d4     LIBCMT:strftime.obj
 0002:000065d8       ??_C@_03ECCP@Tue?$AA@      1007c5d8     LIBCMT:strftime.obj
 0002:000065dc       ??_C@_03PIEP@Mon?$AA@      1007c5dc     LIBCMT:strftime.obj
 0002:000065e0       ??_C@_03FHEP@Sun?$AA@      1007c5e0     LIBCMT:strftime.obj
 0002:000065e4       ??_C@_03MKGK@a?1p?$AA@     1007c5e4     LIBCMT:strftime.obj
 0002:000065e8       ??_C@_05BDJK@am?1pm?$AA@   1007c5e8     LIBCMT:strftime.obj
 0002:00006640       ??_R1A@?0A@A@exception@@8  1007c640     libcpmt:string.obj
 0002:00006658       ??_R1A@?0A@A@logic_error@std@@8 1007c658     libcpmt:string.obj
 0002:00006670       ??_R1A@?0A@A@length_error@std@@8 1007c670     libcpmt:string.obj
 0002:00006688       ??_R2length_error@std@@8   1007c688     libcpmt:string.obj
 0002:00006698       ??_R3length_error@std@@8   1007c698     libcpmt:string.obj
 0002:000066a8       ??_R4length_error@std@@6B@ 1007c6a8     libcpmt:string.obj
 0002:000066c0       ??_R2logic_error@std@@8    1007c6c0     libcpmt:string.obj
 0002:000066d0       ??_R3logic_error@std@@8    1007c6d0     libcpmt:string.obj
 0002:000066e0       ??_R4logic_error@std@@6B@  1007c6e0     libcpmt:string.obj
 0002:000066f8       ??_R1A@?0A@A@out_of_range@std@@8 1007c6f8     libcpmt:string.obj
 0002:00006710       ??_R2out_of_range@std@@8   1007c710     libcpmt:string.obj
 0002:00006720       ??_R3out_of_range@std@@8   1007c720     libcpmt:string.obj
 0002:00006730       ??_R4out_of_range@std@@6B@ 1007c730     libcpmt:string.obj
 0002:00006748       ??_R1A@?0A@A@type_info@@8  1007c748     LIBCMT:typinfo.obj
 0002:00006760       ??_R2type_info@@8          1007c760     LIBCMT:typinfo.obj
 0002:00006768       ??_R3type_info@@8          1007c768     LIBCMT:typinfo.obj
 0002:00006778       ??_R4type_info@@6B@        1007c778     LIBCMT:typinfo.obj
 0002:0000678c       ??_R2exception@@8          1007c78c     LIBCMT:stdexcpt.obj
 0002:00006798       ??_R3exception@@8          1007c798     LIBCMT:stdexcpt.obj
 0002:000067a8       ??_R4exception@@6B@        1007c7a8     LIBCMT:stdexcpt.obj
 0002:00008468       __CT??_R0?AVCException@Win32@OnlineGameLib@@@8??0CException@Win32@OnlineGameLib@@QAE@ABV012@@Z36 1007e468     common:Buffer.obj
 0002:00008488       __CTA1?AVCException@Win32@OnlineGameLib@@ 1007e488     common:Buffer.obj
 0002:00008490       __TI1?AVCException@Win32@OnlineGameLib@@ 1007e490     common:Buffer.obj
 0002:00008aa8       __CT??_R0?AVexception@@@8??0exception@@QAE@ABV0@@Z12 1007eaa8     libcpmt:string.obj
 0002:00008ac8       __CT??_R0?AVlogic_error@std@@@8??0logic_error@std@@QAE@ABV01@@Z28 1007eac8     libcpmt:string.obj
 0002:00008ae8       __CT??_R0?AVlength_error@std@@@8??0length_error@std@@QAE@ABV01@@Z28 1007eae8     libcpmt:string.obj
 0002:00008b08       __CTA3?AVlength_error@std@@ 1007eb08     libcpmt:string.obj
 0002:00008b18       __TI3?AVlength_error@std@@ 1007eb18     libcpmt:string.obj
 0002:00008b78       __CTA2?AVlogic_error@std@@ 1007eb78     libcpmt:string.obj
 0002:00008b88       __TI2?AVlogic_error@std@@  1007eb88     libcpmt:string.obj
 0002:00008c10       __CT??_R0?AVout_of_range@std@@@8??0out_of_range@std@@QAE@ABV01@@Z28 1007ec10     libcpmt:string.obj
 0002:00008c30       __CTA3?AVout_of_range@std@@ 1007ec30     libcpmt:string.obj
 0002:00008c40       __TI3?AVout_of_range@std@@ 1007ec40     libcpmt:string.obj
 0002:00008ca0       __IMPORT_DESCRIPTOR_KERNEL32 1007eca0     kernel32:KERNEL32.dll
 0002:00008cb4       __IMPORT_DESCRIPTOR_LuaLibDll 1007ecb4     lualibdll:LuaLibDll.dll
 0002:00008cc8       __IMPORT_DESCRIPTOR_WS2_32 1007ecc8     Ws2_32:WS2_32.dll
 0002:00008cdc       __IMPORT_DESCRIPTOR_Engine 1007ecdc     engine:Engine.dll
 0002:00008cf0       __IMPORT_DESCRIPTOR_USER32 1007ecf0     user32:USER32.dll
 0002:00008d04       __NULL_IMPORT_DESCRIPTOR   1007ed04     kernel32:KERNEL32.dll
 0003:00000000       ___xc_a                    10082000     LIBCMT:crt0init.obj
 0003:00000104       ___xc_z                    10082104     LIBCMT:crt0init.obj
 0003:00000108       ___xi_a                    10082108     LIBCMT:crt0init.obj
 0003:0000011c       ___xi_z                    1008211c     LIBCMT:crt0init.obj
 0003:00000120       ___xp_a                    10082120     LIBCMT:crt0init.obj
 0003:00000128       ___xp_z                    10082128     LIBCMT:crt0init.obj
 0003:0000012c       ___xt_a                    1008212c     LIBCMT:crt0init.obj
 0003:00000134       ___xt_z                    10082134     LIBCMT:crt0init.obj
 0003:00000140       ??_C@_09MCD@?M?$LF?G?T?$LD?I?$LJ?$KG?5?$AA@ 10082140     KThiefSkill.obj
 0003:0000014c       ??_C@_0CH@JPLM@?D?c?$LD?I?$LJ?$KG?$LF?D?$LE?S?$CFs?5?D?G?$MA?o?M?$LF?$LF?$LN?$CFd?A?$LN?R?x?W?S?$LO?h?$LI@ 1008214c     KThiefSkill.obj
 0003:00000174       ??_C@_09HJHG@?$LB?$LL?M?$LF?$LD?I?$LJ?$KG?5?$AA@ 10082174     KThiefSkill.obj
 0003:00000180       ??_C@_0CB@JOBC@?$CFs?5?$LE?S?D?c?I?m?I?O?M?$LF?$LF?$LN?$CFd?A?$LN?R?x?W?S?$LO?h?$LI?x?G?$LA?O?$NP?$CB@ 10082180     KThiefSkill.obj
 0003:000001a4       ??_C@_08CPH@?M?$LF?G?T?N?$LE?K?l?$AA@ 100821a4     KThiefSkill.obj
 0003:000001b0       ??_C@_0N@JCJE@?D?c?M?$LF?$CFs?5?J?$KH?$LA?$NM?$CB?$AA@ 100821b0     KThiefSkill.obj
 0003:000001c0       ??_C@_08FHON@?$LB?$LL?M?$LF?N?$LE?K?l?$AA@ 100821c0     KThiefSkill.obj
 0003:000001cc       ??_C@_0BK@EFD@?$CFs?5?J?T?M?$LM?M?$LF?D?c?$LF?D?G?$KO?0?$LF?$KL?N?$LE?$LD?I?$LJ?$KG?$CB?$AA@ 100821cc     KThiefSkill.obj
 0003:000001e8       ??_C@_08MHOB@?$LG?T?$LH?$LN?G?i?$LB?$KI?$AA@ 100821e8     KThiefSkill.obj
 0003:000001f4       ??_C@_0BM@HFBJ@?$CFs?5?$LF?$LB?G?$LA?I?z?C?$PM?V?$LF?G?i?$LP?v?3?5?$CFd?5?1?5?$CFd?5?$AA@ 100821f4     KThiefSkill.obj
 0003:00000210       ??_C@_0BM@MMJI@?$CFs?5?$LF?$LB?G?$LA?D?Z?A?$KG?V?$LF?G?i?$LP?v?3?5?$CFd?5?1?5?$CFd?5?$AA@ 10082210     KThiefSkill.obj
 0003:0000022c       ??_C@_0BI@GILH@?$CFs?5?$LF?$LB?G?$LA?O?V?$LN?p?G?i?$LP?v?3?5?$CFd?5?A?$LN?5?$AA@ 1008222c     KThiefSkill.obj
 0003:00000244       ??_C@_04HBMH@main?$AA@     10082244     KThiefSkill.obj
 0003:0000024c       ??_C@_06DMFP@Param1?$AA@   1008224c     KThiefSkill.obj
 0003:00000254       ??_C@_0P@EKAE@CostUsePrecent?$AA@ 10082254     KThiefSkill.obj
 0003:00000264       ??_C@_09KENA@SkillName?$AA@ 10082264     KThiefSkill.obj
 0003:00000270       ??_C@_0L@CJJL@ThiefStyle?$AA@ 10082270     KThiefSkill.obj
 0003:0000027c       ??_C@_09BCLK@TargetObj?$AA@ 1008227c     KThiefSkill.obj
 0003:00000288       ??_C@_0L@EGCM@TargetAlly?$AA@ 10082288     KThiefSkill.obj
 0003:00000294       ??_C@_0M@EBKI@TargetEnemy?$AA@ 10082294     KThiefSkill.obj
 0003:000002a0       ??_C@_0N@PLIG@ThiefPercent?$AA@ 100822a0     KThiefSkill.obj
 0003:000002b0       ??_C@_04IHF@Cost?$AA@      100822b0     KThiefSkill.obj
 0003:000002b8       ??_C@_0O@JJKM@SkillCostType?$AA@ 100822b8     KThiefSkill.obj
 0003:000002c8       ??_C@_0M@FELF@TimePerCast?$AA@ 100822c8     KThiefSkill.obj
 0003:000002d4       ??_C@_0N@LBIN@AttackRadius?$AA@ 100822d4     KThiefSkill.obj
 0003:000002e4       ??_C@_0L@DAAO@?N?$NO?$LH?$KI?$LE?r?$LP?$KK?$CFs?$AA@ 100822e4     KThiefSkill.obj
 0003:000002f0       ??_C@_0M@MLLA@DmgInterval?$AA@ 100822f0     KMissle.obj
 0003:000002fc       ??_C@_0M@CDCB@AutoExplode?$AA@ 100822fc     KMissle.obj
 0003:00000308       ??_C@_06GJHB@Param3?$AA@   10082308     KMissle.obj
 0003:00000310       ??_C@_06MDOG@Param2?$AA@   10082310     KMissle.obj
 0003:00000318       ??_C@_06EDNA@Zspeed?$AA@   10082318     KMissle.obj
 0003:00000320       ??_C@_04LIGI@Zacc?$AA@     10082320     KMissle.obj
 0003:00000328       ??_C@_0L@ICBE@FollowKind?$AA@ 10082328     KMissle.obj
 0003:00000334       ??_C@_08MKEC@MoveKind?$AA@ 10082334     KMissle.obj
 0003:00000340       ??_C@_08EKOK@DmgRange?$AA@ 10082340     KMissle.obj
 0003:0000034c       ??_C@_0L@DOMN@IsRangeDmg?$AA@ 1008234c     KMissle.obj
 0003:00000358       ??_C@_07ICPB@CanSlow?$AA@  10082358     KMissle.obj
 0003:00000360       ??_C@_0N@MOFP@CanColFriend?$AA@ 10082360     KMissle.obj
 0003:00000370       ??_C@_09LLHA@ColVanish?$AA@ 10082370     KMissle.obj
 0003:0000037c       ??_C@_0M@IPHD@CollidRange?$AA@ 1008237c     KMissle.obj
 0003:00000388       ??_C@_0O@CEMO@ResponseSkill?$AA@ 10082388     KMissle.obj
 0003:00000398       ??_C@_05PDDA@Speed?$AA@    10082398     KMissle.obj
 0003:000003a0       ??_C@_08CLHE@LifeTime?$AA@ 100823a0     KMissle.obj
 0003:000003ac       ??_C@_0N@IMPH@MissleHeight?$AA@ 100823ac     KMissle.obj
 0003:000003bc       ??_C@_0L@MDID@MissleName?$AA@ 100823bc     KMissle.obj
 0003:000003c8       ??_C@_0CK@PAOH@MissleSet?5Have?5Full?$CB?$CB?$CB?0?5It?5Maybe@ 100823c8     KMissleSet.obj
 0003:000003f4       ??_C@_0BJ@LELB@?2SETTINGS?2THIEFSKILL?4TXT?$AA@ 100823f4     KSkillManager.obj
 0003:00000410       ??_C@_08KGGF@MaxLevel?$AA@ 10082410     KSkillManager.obj
 0003:0000041c       ??_C@_0L@BMHF@SkillStyle?$AA@ 1008241c     KSkillManager.obj
 0003:00000428       ??_C@_07FGDJ@SkillId?$AA@  10082428     KSkillManager.obj
 0003:00000430       ??_C@_0O@MOFD@LevelUpScript?$AA@ 10082430     KSkills.obj
 0003:00000440       ??_C@_0N@BIJN@LvlSetScript?$AA@ 10082440     KSkills.obj
 0003:00000450       ??_C@_0P@PHDN@StateSpecialId?$AA@ 10082450     KSkills.obj
 0003:00000460       ??_C@_0N@FCJK@HeelAtParent?$AA@ 10082460     KSkills.obj
 0003:00000470       ??_C@_0N@NHMJ@StopWhenMove?$AA@ 10082470     KSkills.obj
 0003:00000480       ??_C@_0L@DDCH@TargetSelf?$AA@ 10082480     KSkills.obj
 0003:0000048c       ??_C@_0L@JEDK@ClientSend?$AA@ 1008248c     KSkills.obj
 0003:00000498       ??_C@_08KDCG@WaitTime?$AA@ 10082498     KSkills.obj
 0003:000004a4       ??_C@_0N@PFI@MaxShadowNum?$AA@ 100824a4     KSkills.obj
 0003:000004b4       ??_C@_0BB@DGJJ@MslsGenerateData?$AA@ 100824b4     KSkills.obj
 0003:000004c8       ??_C@_0N@KHIC@MslsGenerate?$AA@ 100824c8     KSkills.obj
 0003:000004d8       ??_C@_0N@PKDF@FlyEventTime?$AA@ 100824d8     KSkills.obj
 0003:000004e8       ??_C@_07HKCA@IsMelee?$AA@  100824e8     KSkills.obj
 0003:000004f0       ??_C@_0BA@JADL@EventSkillLevel?$AA@ 100824f0     KSkills.obj
 0003:00000500       ??_C@_0BA@GEHB@ChildSkillLevel?$AA@ 10082500     KSkills.obj
 0003:00000510       ??_C@_0L@CHGO@Param1Memo?$AA@ 10082510     KSkills.obj
 0003:0000051c       ??_C@_09PPMA@CostValue?$AA@ 1008251c     KSkills.obj
 0003:00000528       ??_C@_0O@DHIF@CollidSkillId?$AA@ 10082528     KSkills.obj
 0003:00000538       ??_C@_0BA@BHEA@VanishedSkillId?$AA@ 10082538     KSkills.obj
 0003:00000548       ??_C@_0N@OEOH@StartSkillId?$AA@ 10082548     KSkills.obj
 0003:00000558       ??_C@_0L@MDIN@FlySkillId?$AA@ 10082558     KSkills.obj
 0003:00000564       ??_C@_0O@HGMF@VanishedEvent?$AA@ 10082564     KSkills.obj
 0003:00000574       ??_C@_0N@GKON@CollideEvent?$AA@ 10082574     KSkills.obj
 0003:00000584       ??_C@_0L@PGKK@StartEvent?$AA@ 10082584     KSkills.obj
 0003:00000590       ??_C@_08HFEG@FlyEvent?$AA@ 10082590     KSkills.obj
 0003:0000059c       ??_C@_0N@CLHK@ChildSkillId?$AA@ 1008259c     KSkills.obj
 0003:000005ac       ??_C@_08EGED@ByMissle?$AA@ 100825ac     KSkills.obj
 0003:000005b8       ??_C@_09GOAJ@BaseSkill?$AA@ 100825b8     KSkills.obj
 0003:000005c4       ??_C@_0L@BHHN@TargetOnly?$AA@ 100825c4     KSkills.obj
 0003:000005d0       ??_C@_07BALM@IsUseAR?$AA@  100825d0     KSkills.obj
 0003:000005d8       ??_C@_06FHFO@IsAura?$AA@   100825d8     KSkills.obj
 0003:000005e0       ??_C@_0L@MDJJ@IsPhysical?$AA@ 100825e0     KSkills.obj
 0003:000005ec       ??_C@_0L@PFGJ@CharAnimId?$AA@ 100825ec     KSkills.obj
 0003:000005f8       ??_C@_09NNND@CharClass?$AA@ 100825f8     KSkills.obj
 0003:00000604       ??_C@_0M@BDNI@MisslesForm?$AA@ 10082604     KSkills.obj
 0003:00000610       ??_C@_0O@NMBK@ChildSkillNum?$AA@ 10082610     KSkills.obj
 0003:00000620       ??_C@_06BMOM@DoHurt?$AA@   10082620     KSkills.obj
 0003:00000628       ??_C@_0L@PKIM@HorseLimit?$AA@ 10082628     KSkills.obj
 0003:00000634       ??_C@_08BPMA@EqtLimit?$AA@ 10082634     KSkills.obj
 0003:00000640       ??_C@_08BPMG@ReqLevel?$AA@ 10082640     KSkills.obj
 0003:0000064c       ??_C@_0CO@MMBF@?$FLkskill?$FNloadscriptlevel?$FL?$CFd?$FN?$FL?$CFs?0?$CF@ 1008264c     KSkills.obj
 0003:0000067c       ??_C@_0L@IIPN@skill_desc?$AA@ 1008267c     KSkills.obj
 0003:00000688       ??_C@_02MECO@?$CFd?$AA@    10082688     KSkills.obj
 0003:0000068c       ??_C@_0BC@MKKH@GetSkillLevelData?$AA@ 1008268c     KSkills.obj
 0003:000006a0       ??_C@_03GDPD@ssd?$AA@      100826a0     KSkills.obj
 0003:000006a4       ??_C@_09PAIP@LvlData?$CFd?$AA@ 100826a4     KSkills.obj
 0003:000006b0       ??_C@_0N@LGNO@LvlSetting?$CFd?$AA@ 100826b0     KSkills.obj
 0003:000006c0       ??_C@_0BO@CFPJ@?$FLKskill?$FN?$FL?$CFs?$FNscript?5load?5error?$AA@ 100826c0     KSkills.obj
 0003:000006e0       ??_C@_0CO@JJCP@?$FLKskill?$FN?$FL?$CFs?$FNno?5scriptfile?5be?5set@ 100826e0     KSkills.obj
 0003:00000710       ??_C@_04EFNI@Name?$AA@     10082710     KFaction.obj
 0003:00000718       ??_C@_04HGOJ@Camp?$AA@     10082718     KFaction.obj
 0003:00000720       ??_C@_06NHCF@Series?$AA@   10082720     KFaction.obj
 0003:00000728       ??_C@_0BP@JIOO@?2settings?2faction?2?C?E?E?I?I?h?$LG?$KI?4ini?$AA@ 10082728     KFaction.obj
 0003:00000748       ??_C@_07KKPI@OnDeath?$AA@  10082748     KNpc.obj
 0003:00000750       ??_C@_0L@FDMN@LastDamage?$AA@ 10082750     KNpc.obj
 0003:0000075c       ??_C@_08BIAD@DropRate?$AA@ 1008275c     KNpc.obj
 0003:00000768       ??_C@_09FDOA@DeathSelf?$AA@ 10082768     KNpc.obj
 0003:00000774       ??_C@_06NAJJ@Revive?$AA@   10082774     KNpc.obj
 0003:0000077c       ??_C@_09BEPP@GetDamage?$AA@ 1008277c     KNpc.obj
 0003:00000788       ??_C@_0CE@MCNN@Packing?5player?5sync?5data?5failed?4@ 10082788     KNpc.obj
 0003:000007ac       ??_C@_0BN@LGIK@Packing?5sync?5data?5failed?4?4?4?6?$AA@ 100827ac     KNpc.obj
 0003:000007cc       ??_C@_0M@HKIJ@StandFrame1?$AA@ 100827cc     KNpc.obj
 0003:000007d8       ??_C@_0L@IOGM@StandFrame?$AA@ 100827d8     KNpc.obj
 0003:000007e4       ??_C@_09FMAN@CastSpeed?$AA@ 100827e4     KNpc.obj
 0003:000007f0       ??_C@_0M@KMC@AttackSpeed?$AA@ 100827f0     KNpc.obj
 0003:000007fc       ??_C@_09LLIK@HurtFrame?$AA@ 100827fc     KNpc.obj
 0003:00000808       ??_C@_0L@JA@DeathFrame?$AA@ 10082808     KNpc.obj
 0003:00000814       ??_C@_09OPBO@CorpseIdx?$AA@ 10082814     KNpc.obj
 0003:00000820       ??_C@_07NCPE@OnLeave?$AA@  10082820     KNpc.obj
 0003:00000828       ??_C@_0BG@LCB@Error?5Script?$FL?$CFd?$FN?$CB?$CB?$CB?$CB?$CB?$AA@ 10082828     KNpc.obj
 0003:00000840       ??_C@_01FNHM@d?$AA@        10082840     KNpc.obj
 0003:00000844       ??_C@_08GGGI@SubWorld?$AA@ 10082844     KNpc.obj
 0003:00000850       ??_C@_08IPKA@PlayerId?$AA@ 10082850     KNpc.obj
 0003:0000085c       ??_C@_0M@IFME@PlayerIndex?$AA@ 1008285c     KNpc.obj
 0003:00000868       ??_C@_0P@GKCG@SpeicalGraphic?$AA@ 10082868     KNpc.obj
 0003:00000878       ?COLD_TIME_LEVEL@KNpcAttribModify@@2PAY01HA 10082878     KNpcAttribModify.obj
 0003:000008c8       ?ATTACK_SPEED_LEVEL@KNpcAttribModify@@2PAY01HA 100828c8     KNpcAttribModify.obj
 0003:00000950       ??_C@_0BD@KHJK@NotFightExpPercent?$AA@ 10082950     KNpcSet.obj
 0003:00000964       ??_C@_0BE@DJFO@NotEnmityExpPercent?$AA@ 10082964     KNpcSet.obj
 0003:00000978       ??_C@_0BD@ODME@NotSubPKExpPercent?$AA@ 10082978     KNpcSet.obj
 0003:0000098c       ??_C@_0BC@BJG@ButcherPKExercise?$AA@ 1008298c     KNpcSet.obj
 0003:000009a0       ??_C@_0O@EOLH@KillPartnerPK?$AA@ 100829a0     KNpcSet.obj
 0003:000009b0       ??_C@_08JPPK@BeKilled?$AA@ 100829b0     KNpcSet.obj
 0003:000009bc       ??_C@_08ENDF@EnmityPK?$AA@ 100829bc     KNpcSet.obj
 0003:000009c8       ??_C@_0BA@LGOG@KillerPKFaction?$AA@ 100829c8     KNpcSet.obj
 0003:000009d8       ??_C@_0BB@PPAP@FactionPKFaction?$AA@ 100829d8     KNpcSet.obj
 0003:000009ec       ??_C@_02MOMN@PK?$AA@       100829ec     KNpcSet.obj
 0003:000009f0       ??_C@_04MMDE@rate?$AA@     100829f0     KNpcSet.obj
 0003:000009f8       ??_C@_0BJ@GHAA@?2settings?2npc?2PKRate?4ini?$AA@ 100829f8     KNpcSet.obj
 0003:00000a14       ??_C@_0CD@OO@?2settings?2npc?2player?2BaseValue?4i@ 10082a14     KNpcSet.obj
 0003:00000a38       ??_C@_09GDNF@CastFrame?$AA@ 10082a38     KNpcSet.obj
 0003:00000a44       ??_C@_0M@DFBK@AttackFrame?$AA@ 10082a44     KNpcSet.obj
 0003:00000a50       ??_C@_09DKND@WalkSpeed?$AA@ 10082a50     KNpcSet.obj
 0003:00000a5c       ??_C@_08OMKI@RunSpeed?$AA@ 10082a5c     KNpcSet.obj
 0003:00000a68       ??_C@_06GEBA@Common?$AA@   10082a68     KNpcSet.obj
 0003:00000a70       ??_C@_0M@LJCM@ReviveFrame?$AA@ 10082a70     KNpcTemplate.obj
 0003:00000a7c       ??_C@_0L@NGAE@HitRecover?$AA@ 10082a7c     KNpcTemplate.obj
 0003:00000a88       ??_C@_09LAOO@AIMaxTime?$AA@ 10082a88     KNpcTemplate.obj
 0003:00000a94       ??_C@_0N@DACG@DropRateFile?$AA@ 10082a94     KNpcTemplate.obj
 0003:00000aa4       ??_C@_0N@JKIB@VisionRadius?$AA@ 10082aa4     KNpcTemplate.obj
 0003:00000ab4       ??_C@_0N@OHDC@ActiveRadius?$AA@ 10082ab4     KNpcTemplate.obj
 0003:00000ac4       ??_C@_0BB@CDAE@PhysicsResistMax?$AA@ 10082ac4     KNpcTemplate.obj
 0003:00000ad8       ??_C@_0BA@HJIF@PoisonResistMax?$AA@ 10082ad8     KNpcTemplate.obj
 0003:00000ae8       ??_C@_0P@HAFF@LightResistMax?$AA@ 10082ae8     KNpcTemplate.obj
 0003:00000af8       ??_C@_0O@NKIG@ColdResistMax?$AA@ 10082af8     KNpcTemplate.obj
 0003:00000b08       ??_C@_0O@KOED@FireResistMax?$AA@ 10082b08     KNpcTemplate.obj
 0003:00000b18       ??_C@_09NMBA@AIParam10?$AA@ 10082b18     KNpcTemplate.obj
 0003:00000b24       ??_C@_08NEDM@AIParam9?$AA@ 10082b24     KNpcTemplate.obj
 0003:00000b30       ??_C@_08HOKL@AIParam8?$AA@ 10082b30     KNpcTemplate.obj
 0003:00000b3c       ??_C@_08HPPG@AIParam7?$AA@ 10082b3c     KNpcTemplate.obj
 0003:00000b48       ??_C@_08NFGB@AIParam6?$AA@ 10082b48     KNpcTemplate.obj
 0003:00000b54       ??_C@_08CKNI@AIParam5?$AA@ 10082b54     KNpcTemplate.obj
 0003:00000b60       ??_C@_08IAEP@AIParam4?$AA@ 10082b60     KNpcTemplate.obj
 0003:00000b6c       ??_C@_08NFKK@AIParam3?$AA@ 10082b6c     KNpcTemplate.obj
 0003:00000b78       ??_C@_08HPDN@AIParam2?$AA@ 10082b78     KNpcTemplate.obj
 0003:00000b84       ??_C@_08IAIE@AIParam1?$AA@ 10082b84     KNpcTemplate.obj
 0003:00000b90       ??_C@_06KAOA@AIMode?$AA@   10082b90     KNpcTemplate.obj
 0003:00000b98       ??_C@_03HBFD@555?$AA@      10082b98     KNpcTemplate.obj
 0003:00000b9c       ??_C@_07EPMP@Stature?$AA@  10082b9c     KNpcTemplate.obj
 0003:00000ba4       ??_C@_08NDHA@RunFrame?$AA@ 10082ba4     KNpcTemplate.obj
 0003:00000bb0       ??_C@_09FAL@WalkFrame?$AA@ 10082bb0     KNpcTemplate.obj
 0003:00000bbc       ??_C@_0L@MIBL@ClientOnly?$AA@ 10082bbc     KNpcTemplate.obj
 0003:00000bc8       ??_C@_09IFFL@HeadImage?$AA@ 10082bc8     KNpcTemplate.obj
 0003:00000bd4       ??_C@_04PEBP@Kind?$AA@     10082bd4     KNpcTemplate.obj
 0003:00000bdc       ??_C@_0O@HKOB@PhysicsResist?$AA@ 10082bdc     KNpcTemplate.obj
 0003:00000bec       ??_C@_0N@KLCP@PoisonResist?$AA@ 10082bec     KNpcTemplate.obj
 0003:00000bfc       ??_C@_0M@HEPL@LightResist?$AA@ 10082bfc     KNpcTemplate.obj
 0003:00000c08       ??_C@_0L@GLDE@ColdResist?$AA@ 10082c08     KNpcTemplate.obj
 0003:00000c14       ??_C@_0L@LKA@FireResist?$AA@ 10082c14     KNpcTemplate.obj
 0003:00000c20       ??_C@_0P@FFHD@MaxDamageParam?$AA@ 10082c20     KNpcTemplate.obj
 0003:00000c30       ??_C@_0P@GMML@MinDamageParam?$AA@ 10082c30     KNpcTemplate.obj
 0003:00000c40       ??_C@_0N@BCNC@DefenseParam?$AA@ 10082c40     KNpcTemplate.obj
 0003:00000c50       ??_C@_07MKBE@ARParam?$AA@  10082c50     KNpcTemplate.obj
 0003:00000c58       ??_C@_0O@CGDG@LifeReplenish?$AA@ 10082c58     KNpcTemplate.obj
 0003:00000c68       ??_C@_09FJGJ@LifeParam?$AA@ 10082c68     KNpcTemplate.obj
 0003:00000c74       ??_C@_08FHLH@ExpParam?$AA@ 10082c74     KNpcTemplate.obj
 0003:00000c80       ??_C@_06NGDK@Level4?$AA@   10082c80     KNpcTemplate.obj
 0003:00000c88       ??_C@_06EPAA@Skill4?$AA@   10082c88     KNpcTemplate.obj
 0003:00000c90       ??_C@_06IDNP@Level3?$AA@   10082c90     KNpcTemplate.obj
 0003:00000c98       ??_C@_06BKOF@Skill3?$AA@   10082c98     KNpcTemplate.obj
 0003:00000ca0       ??_C@_06CJEI@Level2?$AA@   10082ca0     KNpcTemplate.obj
 0003:00000ca8       ??_C@_06LAHC@Skill2?$AA@   10082ca8     KNpcTemplate.obj
 0003:00000cb0       ??_C@_06NGPB@Level1?$AA@   10082cb0     KNpcTemplate.obj
 0003:00000cb8       ??_C@_06EPML@Skill1?$AA@   10082cb8     KNpcTemplate.obj
 0003:00000cc0       ??_C@_0BA@HKB@GetNpcLevelData?$AA@ 10082cc0     KNpcTemplate.obj
 0003:00000cd0       ??_C@_03GN@dss?$AA@        10082cd0     KNpcTemplate.obj
 0003:00000cd4       ??_C@_0O@NCJC@GetNpcKeyData?$AA@ 10082cd4     KNpcTemplate.obj
 0003:00000ce4       ??_C@_05BDHA@dsnnn?$AA@    10082ce4     KNpcTemplate.obj
 0003:00000cec       ??_C@_0BI@FPKH@?2script?2playerlogin?4lua?$AA@ 10082cec     KPlayer.obj
 0003:00000d04       ??_C@_0CE@OEOP@player?5Packing?5sync?5data?5failed?4@ 10082d04     KPlayer.obj
 0003:00000d28       ??_C@_0L@FJAO@NPC?5Fail?4?6?$AA@ 10082d28     KPlayer.obj
 0003:00000d34       ??_C@_0CD@CANC@Load?5PlayerInfo?5Step?5?$CFd?5Failed?4?4@ 10082d34     KPlayer.obj
 0003:00000d58       ??_C@_0BA@CKFL@SubWorld?5Fail?4?6?$AA@ 10082d58     KPlayer.obj
 0003:00000d68       ??_C@_0CK@HJIM@player?5Packing?5skill?5sync?5data?5f@ 10082d68     KPlayer.obj
 0003:00000d94       ??_C@_0CC@PHJK@?2script?2feature?2gambling?2dice?4lu@ 10082d94     KPlayer.obj
 0003:00000db8       ??_C@_08HCF@H?V?5th?hng?$AA@ 10082db8     KPlayer.obj
 0003:00000dc4       ??_C@_0DN@LCM@Ng?$KJn?5l?$KN?nng?5v?$KN?nt?5qu?$LI?5gi?mi?5h?$LJn?4?5Kh@ 10082dc4     KPlayer.obj
 0003:00000e04       ??_C@_0P@FOAF@ItemUnLockTime?$AA@ 10082e04     KPlayer.obj
 0003:00000e14       ??_C@_04OAHI@Time?$AA@     10082e14     KPlayer.obj
 0003:00000e1c       ??_C@_0DK@BGMP@V?Kt?5ph?Hm?5?$CFs?5?$KO?$LH?5h?Ut?5h?$LJn?5s?v?5d?tng?4?5@ 10082e1c     KPlayer.obj
 0003:00000e58       ??_C@_0CL@JKCC@Date?3?5?$CF02d?3?$CF02d?3?$CF02d?5loseitem?5Na@ 10082e58     KPlayer.obj
 0003:00000e84       ??_C@_0HE@MMMF@Date?3?5?$CF02d?3?$CF02d?3?$CF02d?4Style?3trade@ 10082e84     KPlayer.obj
 0003:00000ef8       ??_C@_0HD@FFOG@Date?3?5?$CF02d?3?$CF02d?3?$CF02d?4Style?3trade@ 10082ef8     KPlayer.obj
 0003:00000f6c       ??_C@_0HF@OAEC@Date?3?5?$CF02d?3?$CF02d?3?$CF02d?4Style?3sellp@ 10082f6c     KPlayer.obj
 0003:00000fe4       ??_C@_0HE@GFFL@Date?3?5?$CF02d?3?$CF02d?3?$CF02d?4Style?3buypl@ 10082fe4     KPlayer.obj
 0003:00001058       ??_C@_0GH@GDHN@Date?3?5?$CF02d?3?$CF02d?3?$CF02d?4Style?3sells@ 10083058     KPlayer.obj
 0003:000010c0       ??_C@_0GF@CGMK@Date?3?5?$CF02d?3?$CF02d?3?$CF02d?4Style?3buynp@ 100830c0     KPlayer.obj
 0003:00001128       ??_C@_0FJ@PFAH@Date?3?5?$CF02d?3?$CF02d?3?$CF02d?4Style?3pick?4@ 10083128     KPlayer.obj
 0003:00001184       ??_C@_0FK@BANE@Date?3?5?$CF02d?3?$CF02d?3?$CF02d?4Style?3throw@ 10083184     KPlayer.obj
 0003:000011e0       ??_C@_0CL@GMGB@?$FL?$CFd?0?$CFd?$FN?$FL?$CFd?0?$CFd?$FN?$FL?$CFd?0?$CFd?$FN?$FL?$CFd?0?$CFd?$FN?$FL?$CFd?0@ 100831e0     KPlayer.obj
 0003:0000120c       ??_C@_0CL@OEGM@G?3?$FL?$CFd?$FND?3?$FL?$CFd?$FNP?3?$FL?$CFd?$FNS?3?$FL?$CFd?$FNL?3?$FL?$CFd?$FNK?3@ 1008320c     KPlayer.obj
 0003:00001238       ??_C@_05KEJO@?$CFs?2?$CFs?$AA@ 10083238     KPlayer.obj
 0003:00001240       ??_C@_0BM@NAGM@?$CFs?2ItemHistory?2?$CF02d?9?$CF02d?9?$CFd?$AA@ 10083240     KPlayer.obj
 0003:0000125c       ??_C@_0DO@HGDI@?9?9?9?$CF02d?3?$CF02d?3?$CF02d?6Acc?3?5?$FL?$CFs?$FN?5Name@ 1008325c     KPlayer.obj
 0003:0000129c       ??_C@_0CE@JFEG@?$CFs?2ItemHistory?2?$CF02d?9?$CF02d?9?$CFd?2shop@ 1008329c     KPlayer.obj
 0003:000012c0       ??_C@_0FO@BLHM@?9?9?9?$CF02d?3?$CF02d?3?$CF02d?4Acc?3?5?$FL?$CFs?$FN?5Name@ 100832c0     KPlayer.obj
 0003:00001320       ??_C@_0CC@PBM@?$CFs?2ItemHistory?2?$CF02d?9?$CF02d?9?$CFd?2logi@ 10083320     KPlayer.obj
 0003:00001344       ??_C@_0DD@CHIJ@Ph?$LGi?5?$KO?$LJt?5?$KO?Un?5c?Jp?5?$CFd?5m?mi?5c?c?5th?S?5n@ 10083344     KPlayer.obj
 0003:00001378       ??_C@_0DD@HFOF@K?$PM?5n?$KIng?5?$CFs?5?$KO?$LH?5?$KO?$LJt?5?$KO?Un?5gi?mi?5h?$LJn?0?5@ 10083378     KPlayer.obj
 0003:000013ac       ??_C@_07NAAK@useitem?$AA@  100833ac     KPlayer.obj
 0003:000013b4       ??_C@_0CB@LJJH@?2script?2item?2event?2event?$CF04d?4lua@ 100833b4     KPlayer.obj
 0003:000013d8       ??_C@_0CE@PBIH@?2script?2item?2questkey?2quest?$CF04d?4@ 100833d8     KPlayer.obj
 0003:000013fc       ??_C@_0CD@EFP@?2script?2item?2materials?2mat?$CF04d?4l@ 100833fc     KPlayer.obj
 0003:00001420       ??_C@_0CA@KKEE@?2script?2item?2tools?2tool?$CF04d?4lua?$AA@ 10083420     KPlayer.obj
 0003:00001440       ??_C@_0EM@PGBB@B?$LJn?5h?$LHy?5c?Jt?5gi?w?5v?Kt?5ph?Hm?5tr?$KKn?5ta@ 10083440     KPlayer.obj
 0003:0000148c       ??_C@_0CO@DPGP@B?$LJn?5vui?5l?$NPng?5c?Jt?5gi?w?5v?Kt?5ph?Hm?5tr@ 1008348c     KPlayer.obj
 0003:000014bc       ??_C@_0DD@FILK@Exception?5Have?5Caught?5When?5Execu@ 100834bc     KPlayer.obj
 0003:000014f0       ??_C@_02IELE@ds?$AA@       100834f0     KPlayer.obj
 0003:000014f4       ??_C@_02HICB@dd?$AA@       100834f4     KPlayer.obj
 0003:000014f8       ??_C@_07JBGN@noinput?$AA@  100834f8     KPlayer.obj
 0003:00001500       ?g_dwChannelOr@@3PAKA      10083500     KPlayerChat.obj
 0003:00001524       ?g_dwChannelAnd@@3PAKA     10083524     KPlayerChat.obj
 0003:00001548       ?GUID_ATLVer30@ATL@@3U_GUID@@A 10083548     KPlayerChat.obj
 0003:00001558       ??_C@_08NNGO@?N?R?$LF?D?$LK?C?S?Q?$AA@ 10083558     KPlayerChat.obj
 0003:00001564       ??_C@_08CJHB@C?$KLng?5b?h?5?$AA@ 10083564     KPlayerChat.obj
 0003:00001570       ??_C@_0M@CBCP@?$FLchat?$FNerror?$AA@ 10083570     KPlayerChat.obj
 0003:0000157c       ??_C@_0CN@IGMB@player?5Packing?5friend?52?5sync?5dat@ 1008357c     KPlayerChat.obj
 0003:000015ac       ??_C@_0CL@DIFD@player?5Packing?5friend?5sync?5data?5@ 100835ac     KPlayerChat.obj
 0003:000015d8       ??_C@_09BJOM@Th?$KJn?5nh?$KJn?$AA@ 100835d8     KPlayerChat.obj
 0003:000015e4       ??_C@_08PBLK@C?uu?5nh?$KJn?$AA@ 100835e4     KPlayerChat.obj
 0003:000015f0       ??_C@_0FG@BMBC@?$CI?$CFd?0?$CFd?0?$CFd?0?$CFd?0?$CFd?0?$CFd?0?$CFd?0?$CFd?0?$CFd?0?$CFd?0?$CF@ 100835f0     KPlayerDBFuns.obj
 0003:00001648       ??_C@_04MOFI@?$CFs?$CFd?$AA@ 10083648     KPlayerDBFuns.obj
 0003:00001650       ??_C@_04KAML@ITEM?$AA@     10083650     KPlayerDBFuns.obj
 0003:00001658       ??_C@_0CK@KECH@?2settings?2npcres?2?$LN?g?C?f?W?$LE?L?$KM?S?k?M?$LM?P?N?$LG@ 10083658     KPlayerMenuState.obj
 0003:00001684       ??_C@_09BOBH@TongLeave?$AA@ 10083684     KPlayerSet.obj
 0003:00001690       ??_C@_06GNMN@Detail?$AA@   10083690     KPlayerSet.obj
 0003:00001698       ??_C@_06NLKF@Repute?$AA@   10083698     KPlayerSet.obj
 0003:000016a0       ??_C@_09MKCK@LeadLevel?$AA@ 100836a0     KPlayerSet.obj
 0003:000016ac       ??_C@_0L@OHL@TongCreate?$AA@ 100836ac     KPlayerSet.obj
 0003:000016b8       ??_C@_05PGGH@Level?$AA@    100836b8     KPlayerSet.obj
 0003:000016c0       ??_C@_0BL@HCJH@?2settings?2tong?2TongSet?4ini?$AA@ 100836c0     KPlayerSet.obj
 0003:000016dc       ??_C@_09DGFN@IncInside?$AA@ 100836dc     KPlayerSet.obj
 0003:000016e8       ??_C@_03PEHN@Yes?$AA@      100836e8     KPlayerSet.obj
 0003:000016ec       ??_C@_0L@ICCL@PlayerSale?$AA@ 100836ec     KPlayerSet.obj
 0003:000016f8       ??_C@_09OGGF@SaleLevel?$AA@ 100836f8     KPlayerSet.obj
 0003:00001704       ??_C@_0L@FDOP@Lucky_Line?$AA@ 10083704     KPlayerSet.obj
 0003:00001710       ??_C@_0M@PKIN@Lucky_Bless?$AA@ 10083710     KPlayerSet.obj
 0003:0000171c       ??_C@_0M@NGCL@Lucky_Stone?$AA@ 1008371c     KPlayerSet.obj
 0003:00001728       ??_C@_0M@JCGH@Lucky_Glass?$AA@ 10083728     KPlayerSet.obj
 0003:00001734       ??_C@_09DCCF@Lucky_Cry?$AA@ 10083734     KPlayerSet.obj
 0003:00001740       ??_C@_0BA@IEND@Enchase_Enchase?$AA@ 10083740     KPlayerSet.obj
 0003:00001750       ??_C@_0O@KFOF@Enchase_Forge?$AA@ 10083750     KPlayerSet.obj
 0003:00001760       ??_C@_04GGHG@Rate?$AA@     10083760     KPlayerSet.obj
 0003:00001768       ??_C@_0BA@HKLI@Enchase_Distill?$AA@ 10083768     KPlayerSet.obj
 0003:00001778       ??_C@_0BF@JEGH@Enchase_UpgrateStone?$AA@ 10083778     KPlayerSet.obj
 0003:00001790       ??_C@_09GCHO@LvRate_?$CFd?$AA@ 10083790     KPlayerSet.obj
 0003:0000179c       ??_C@_0BD@GKH@Enchase_UpgrateCry?$AA@ 1008379c     KPlayerSet.obj
 0003:000017b0       ??_C@_0BB@LJJE@Enchase_Compound?$AA@ 100837b0     KPlayerSet.obj
 0003:000017c4       ??_C@_05COBC@Money?$AA@    100837c4     KPlayerSet.obj
 0003:000017cc       ??_C@_0CC@KDIP@?2settings?2npc?2player?2PKPunish?4tx@ 100837cc     KPlayerSet.obj
 0003:000017f0       ??_C@_04FGKI@Str2?$AA@     100837f0     KPlayerSet.obj
 0003:000017f8       ??_C@_04KJBB@Str1?$AA@     100837f8     KPlayerSet.obj
 0003:00001800       ??_C@_06JHPK@Value5?$AA@   10083800     KPlayerSet.obj
 0003:00001808       ??_C@_06DNGN@Value4?$AA@   10083808     KPlayerSet.obj
 0003:00001810       ??_C@_06GIII@Value3?$AA@   10083810     KPlayerSet.obj
 0003:00001818       ??_C@_06MCBP@Value2?$AA@   10083818     KPlayerSet.obj
 0003:00001820       ??_C@_06DNKG@Value1?$AA@   10083820     KPlayerSet.obj
 0003:00001828       ??_C@_07JECG@Group?$CFd?$AA@ 10083828     KPlayerSet.obj
 0003:00001830       ??_C@_09JEKI@GoupCount?$AA@ 10083830     KPlayerSet.obj
 0003:0000183c       ??_C@_05HCNL@Count?$AA@    1008383c     KPlayerSet.obj
 0003:00001844       ??_C@_05KBGO@Value?$AA@    10083844     KPlayerSet.obj
 0003:0000184c       ??_C@_07GMEC@Value?$CFd?$AA@ 1008384c     KPlayerSet.obj
 0003:00001854       ??_C@_0BD@ICAN@?2settings?2data?4ini?$AA@ 10083854     KPlayerSet.obj
 0003:00001868       ??_C@_08PADI@?N?b?$LI?$KO?$LJ?$NM?$LM?R?$AA@ 10083868     KPlayerSet.obj
 0003:00001874       ??_C@_0DD@PJIC@?R?$LL?$LF?$MA?I?A?$LJ?b?$KD?$KM?$DMcolor?$DNgreen?$DO?$CFs?$DMcolor?$DN@ 10083874     KPlayerSet.obj
 0003:000018a8       ??_C@_0DH@NEGD@?$DMcolor?$DNgreen?$DO?$CFs?$DMcolor?$DNrestore?$DO?$LN?E@ 100838a8     KPlayerSet.obj
 0003:000018e0       ??_C@_0DF@BIBN@?N?R?$DMcolor?$DNgreen?$DO?$CFs?$DMcolor?$DNrestore?$DO@ 100838e0     KPlayerSet.obj
 0003:00001918       ??_C@_0CD@PPJL@?2settings?2npc?2player?2level_add?4t@ 10083918     KPlayerSet.obj
 0003:0000193c       ??_C@_0CD@GGIO@?2settings?2npc?2player?2level_exp?4t@ 1008393c     KPlayerSet.obj
 0003:00001960       ??_C@_0CI@JEAL@?2settings?2npc?2player?2level_lead_@ 10083960     KPlayerSet.obj
 0003:00001988       ??_C@_07BGDJ@iinside?$AA@  10083988     KPlayerSet.obj
 0003:00001990       ??_C@_06FLI@iouter?$AA@    10083990     KPlayerSet.obj
 0003:00001998       ??_C@_08GNLA@iagility?$AA@ 10083998     KPlayerSet.obj
 0003:000019a4       ??_C@_04CO@ROLE?$AA@       100839a4     KPlayerSet.obj
 0003:000019ac       ??_C@_06KFBD@ipower?$AA@   100839ac     KPlayerSet.obj
 0003:000019b4       ??_C@_0CG@NIIM@?2settings?2player?2newplayerini?$CF02@ 100839b4     KPlayerSet.obj
 0003:000019dc       ??_C@_0CI@FJAK@?$FLerror?$FNFind?5Guid?5to?5a?5disconnect@ 100839dc     KPlayerSet.obj
 0003:00001a04       ??_C@_06PDPG@Group0?$AA@   10083a04     KPlayerSet.obj
 0003:00001a0c       ??_C@_05JKGE@?$CFs?5?$CFs?$AA@ 10083a0c     KPlayerTong.obj
 0003:00001a14       ??_C@_09EGKN@Bang?5ch?q?5?$AA@ 10083a14     KPlayerTong.obj
 0003:00001a20       ?TABFILE_EQUIPMENT@@3PAPADA 10083a20     KBasPropTbl.obj
 0003:00001a5c       ??_C@_0M@FDKN@Jewelry?4txt?$AA@ 10083a5c     KBasPropTbl.obj
 0003:00001a68       ??_C@_0L@LACB@Signet?4txt?$AA@ 10083a68     KBasPropTbl.obj
 0003:00001a74       ??_C@_08DOOG@Gown?4txt?$AA@ 10083a74     KBasPropTbl.obj
 0003:00001a80       ??_C@_08KCP@Mask?4txt?$AA@ 10083a80     KBasPropTbl.obj
 0003:00001a8c       ??_C@_09EEPL@Horse?4txt?$AA@ 10083a8c     KBasPropTbl.obj
 0003:00001a98       ??_C@_0M@KGOC@Pendant?4txt?$AA@ 10083a98     KBasPropTbl.obj
 0003:00001aa4       ??_C@_08BAAI@Cuff?4txt?$AA@ 10083aa4     KBasPropTbl.obj
 0003:00001ab0       ??_C@_08PAEK@Ring?4txt?$AA@ 10083ab0     KBasPropTbl.obj
 0003:00001abc       ??_C@_0L@BFDO@Amulet?4txt?$AA@ 10083abc     KBasPropTbl.obj
 0003:00001ac8       ??_C@_08HFCC@Belt?4txt?$AA@ 10083ac8     KBasPropTbl.obj
 0003:00001ad4       ??_C@_08OCEE@Boot?4txt?$AA@ 10083ad4     KBasPropTbl.obj
 0003:00001ae0       ??_C@_08HFB@Helm?4txt?$AA@ 10083ae0     KBasPropTbl.obj
 0003:00001aec       ??_C@_09KIMI@Armor?4txt?$AA@ 10083aec     KBasPropTbl.obj
 0003:00001af8       ??_C@_0BA@EMDN@RangeWeapon?4txt?$AA@ 10083af8     KBasPropTbl.obj
 0003:00001b08       ??_C@_0BA@MGBA@MeleeWeapon?4txt?$AA@ 10083b08     KBasPropTbl.obj
 0003:00001b18       ??_C@_0P@BAML@?2settings?2item?$AA@ 10083b18     KBasPropTbl.obj
 0003:00001b28       ??_C@_0N@KHKF@questkey?4txt?$AA@ 10083b28     KBasPropTbl.obj
 0003:00001b38       ??_C@_09KPMF@Tools?4txt?$AA@ 10083b38     KBasPropTbl.obj
 0003:00001b44       ??_C@_0O@EDPG@materials?4txt?$AA@ 10083b44     KBasPropTbl.obj
 0003:00001b54       ??_C@_0O@LAKL@eventitem?4txt?$AA@ 10083b54     KBasPropTbl.obj
 0003:00001b64       ??_C@_0L@DJI@potion?4txt?$AA@ 10083b64     KBasPropTbl.obj
 0003:00001b70       ??_C@_0O@KGDF@GoldEquip?4txt?$AA@ 10083b70     KBasPropTbl.obj
 0003:00001b80       ??_C@_0BA@EFFL@magicattrib?4txt?$AA@ 10083b80     KBasPropTbl.obj
 0003:00001b90       ??_C@_0BE@IPN@?2settings?2goods?4txt?$AA@ 10083b90     KBuySell.obj
 0003:00001ba4       ??_C@_0BG@FMLK@?2settings?2buysell?4txt?$AA@ 10083ba4     KBuySell.obj
 0003:00001bbc       ??_C@_0BI@KNK@?2settings?2SuperShop?4txt?$AA@ 10083bbc     KenSuperShop.obj
 0003:00001bd4       ??_C@_0BL@LLGN@?2settings?2item?2GoldRes?4txt?$AA@ 10083bd4     KItemChangeRes.obj
 0003:00001bf0       ??_C@_0BM@HJJL@?2settings?2item?2HorseRes?4txt?$AA@ 10083bf0     KItemChangeRes.obj
 0003:00001c0c       ??_C@_0BL@BCHA@?2settings?2item?2HelmRes?4txt?$AA@ 10083c0c     KItemChangeRes.obj
 0003:00001c28       ??_C@_0BM@KPKN@?2settings?2item?2ArmorRes?4txt?$AA@ 10083c28     KItemChangeRes.obj
 0003:00001c44       ??_C@_0BM@KIHB@?2settings?2item?2RangeRes?4txt?$AA@ 10083c44     KItemChangeRes.obj
 0003:00001c60       ??_C@_0BM@CJDD@?2settings?2item?2MeleeRes?4txt?$AA@ 10083c60     KItemChangeRes.obj
 0003:00001c7c       ?ms_ActiveEquip@KItemList@@0PAY01HA 10083c7c     KItemList.obj
 0003:00001cf4       ?ms_ActivedEquip@KItemList@@0PAY01HA 10083cf4     KItemList.obj
 0003:00001d6c       ??_C@_0CB@BLNL@?$KH?hi?5ph?$KN?$KMng?5?$KO?Ft?5v?$LFo?5m?it?5v?Kt?5ph?Hm?4@ 10083d6c     KItemList.obj
 0003:00001d90       ??_C@_0CA@GFIE@?$KH?hi?5ph?$KN?$KMng?5l?Jy?5?$KOi?5m?it?5v?Kt?5ph?Hm?4?$AA@ 10083d90     KItemList.obj
 0003:00001db0       ??_C@_0ED@NKID@V?Kt?5ph?Hm?5?$KOang?5trong?5t?Wnh?5tr?$LJng?5k@ 10083db0     KItemList.obj
 0003:00001df4       ??_C@_0BH@JOCL@?$CFs?5exchange?5item?5error?$AA@ 10083df4     KItemList.obj
 0003:00001e0c       ??_C@_04LCOO@Move?$AA@     10083e0c     KItemSet.obj
 0003:00001e14       ??_C@_04MHHA@Cuff?$AA@     10083e14     KItemSet.obj
 0003:00001e1c       ??_C@_04DNDI@Foot?$AA@     10083e1c     KItemSet.obj
 0003:00001e24       ??_C@_04KHBH@Belt?$AA@     10083e24     KItemSet.obj
 0003:00001e2c       ??_C@_04HCKI@Body?$AA@     10083e2c     KItemSet.obj
 0003:00001e34       ??_C@_06PPP@Defend?$AA@    10083e34     KItemSet.obj
 0003:00001e3c       ??_C@_04JHAH@Head?$AA@     10083e3c     KItemSet.obj
 0003:00001e44       ??_C@_06MBHJ@Attack?$AA@   10083e44     KItemSet.obj
 0003:00001e4c       ??_C@_06DNLJ@Weapon?$AA@   10083e4c     KItemSet.obj
 0003:00001e54       ??_C@_08HPJL@SellRate?$AA@ 10083e54     KItemSet.obj
 0003:00001e60       ??_C@_0L@BLLI@RepairRate?$AA@ 10083e60     KItemSet.obj
 0003:00001e6c       ??_C@_0P@GCMH@GoldRepairRate?$AA@ 10083e6c     KItemSet.obj
 0003:00001e7c       ??_C@_0BB@LACE@VioletRepairRate?$AA@ 10083e7c     KItemSet.obj
 0003:00001e90       ??_C@_0BA@OABO@MagicPriceScale?$AA@ 10083e90     KItemSet.obj
 0003:00001ea0       ??_C@_06NNPN@Repair?$AA@   10083ea0     KItemSet.obj
 0003:00001ea8       ??_C@_0P@ILEH@ItemPriceScale?$AA@ 10083ea8     KItemSet.obj
 0003:00001eb8       ??_C@_0BO@NLPP@?2settings?2item?2AbradeRate?4ini?$AA@ 10083eb8     KItemSet.obj
 0003:00001ed8       ??_C@_0CA@HIJP@?$FLerror?$FNScript?5FileName?5Error?$CB?$CB?$CB?$AA@ 10083ed8     KObj.obj
 0003:00001ef8       ??_C@_0DI@EMDG@Exception?5Have?5Chought?5When?5Exec@ 10083ef8     KObj.obj
 0003:00001f30       ??_C@_08NHHJ@ObjIndex?$AA@ 10083f30     KObj.obj
 0003:00001f3c       ?g_szObjKind@@3PAY0CA@DA   10083f3c     KObjSet.obj
 0003:0000209c       ?g_dwObjKindNum@@3PAKA     1008409c     KObjSet.obj
 0003:000020c8       ??_C@_0BL@NDBN@?2settings?2obj?2MoneyObj?4txt?$AA@ 100840c8     KObjSet.obj
 0003:000020e4       ??_C@_0BK@IODM@?2settings?2obj?2ObjData?4txt?$AA@ 100840e4     KObjSet.obj
 0003:00002100       ??_C@_0M@HLNI@?2?$CFs?2?$CF03d_?$CFs?$AA@ 10084100     KObjSet.obj
 0003:0000210c       ??_C@_09NOIM@Obj_S?4dat?$AA@ 1008410c     KObjSet.obj
 0003:00002118       ?DofM@@3PAUMONTH_DAY@@A    10084118     KCore.obj
 0003:0000214c       ??_C@_0BO@BGFO@End?5of?5Init?5?0Game?5Started?$CB?5?$CFs?$AA@ 1008414c     KCore.obj
 0003:0000216c       ??_C@_0BJ@FFOI@SuperMarket?5init?5failed?$CB?$AA@ 1008416c     KCore.obj
 0003:00002188       ??_C@_0BF@LDDC@Buysell?5init?5failed?$CB?$AA@ 10084188     KCore.obj
 0003:000021a0       ??_C@_0P@KGIM@PhysicsSkillID?$AA@ 100841a0     KCore.obj
 0003:000021b0       ??_C@_0P@GJPA@ParticularType?$AA@ 100841b0     KCore.obj
 0003:000021c0       ??_C@_0L@BAJC@DetailType?$AA@ 100841c0     KCore.obj
 0003:000021cc       ??_C@_0CB@GCE@?2settings?2?N?d?F?w?N?o?$MA?m?$LJ?$KF?$LL?w?$LG?T?U?U?$LB?m?4txt@ 100841cc     KCore.obj
 0003:000021f0       ??_C@_0BG@BEEP@Initting?5g_Faction?5?$CFs?$AA@ 100841f0     KCore.obj
 0003:00002208       ??_C@_0BD@MGKB@?2maps?2WorldSet?4ini?$AA@ 10084208     KCore.obj
 0003:0000221c       ??_C@_0BI@OGPN@?2script?2servertimer?4lua?$AA@ 1008421c     KCore.obj
 0003:00002234       ??_C@_0BK@PEEG@Init?5PlayerSet?5Error?$CB?$CB?$CB?$CB?6?$AA@ 10084234     KCore.obj
 0003:00002250       ??_C@_0BI@DDDK@?2Settings?2RevivePos?4ini?$AA@ 10084250     KCore.obj
 0003:00002268       ??_C@_0BP@LPMO@?2Settings?2item?2magicattrib?4txt?$AA@ 10084268     KCore.obj
 0003:00002288       ??_C@_0BJ@JJFJ@?2settings?2ExpandRank?4txt?$AA@ 10084288     KCore.obj
 0003:000022a4       ??_C@_0BO@LFBF@?2settings?2npc?2NpcTempName?4txt?$AA@ 100842a4     KCore.obj
 0003:000022c4       ??_C@_0BN@BNPJ@?2settings?2item?2GoldMagic?4txt?$AA@ 100842c4     KCore.obj
 0003:000022e4       ??_C@_0BD@COCI@?2settings?2NpcS?4txt?$AA@ 100842e4     KCore.obj
 0003:000022f8       ??_C@_0BG@OGGB@?2settings?2Missles?4txt?$AA@ 100842f8     KCore.obj
 0003:00002310       ??_C@_0BF@JEHD@?2settings?2Skills?4txt?$AA@ 10084310     KCore.obj
 0003:00002328       ??_C@_0BI@BDJC@?2Settings?2OtherInit?4ini?$AA@ 10084328     KCore.obj
 0003:00002340       ??_C@_0BK@JPEF@?$FLMath?$FN?$LD?u?J?$LM?$LL?$KP?J?$PN?Q?$KH?$LK?$KP?J?$PN?J?$KH?$LA?$NM?$CB?$AA@ 10084340     KCore.obj
 0003:0000235c       ??_C@_0BG@BOIH@Starting?5Core?4?4?4?4?4?4?$CFs?$AA@ 1008435c     KCore.obj
 0003:00002374       ??_C@_06KBFD@?$CD32770?$AA@ 10084374     KCore.obj
 0003:0000237c       ??_C@_08IOGN@DebugWin?$AA@ 1008437c     KCore.obj
 0003:00002388       ??_C@_0BH@GMAH@?$FLerror?$FNCan?5Not?5Open?5?$CFs?$AA@ 10084388     KCore.obj
 0003:000023a0       ??_C@_0BM@FOLC@?2settings?2task?2missions?4txt?$AA@ 100843a0     KCore.obj
 0003:000023bc       ??_C@_0BN@OEBM@Timer?5Task?5Init?5Erroorororo?$CB?$AA@ 100843bc     KCore.obj
 0003:000023dc       ??_C@_0CM@LLBC@?$FLTASK?$FNCAN?5NOT?5LOAD?5STATION?5PRICE@ 100843dc     KCore.obj
 0003:00002408       ??_C@_0BL@GLLI@?2settings?2StationPrice?4txt?$AA@ 10084408     KCore.obj
 0003:00002424       ??_C@_0BG@DOKI@?2settings?2Station?4txt?$AA@ 10084424     KCore.obj
 0003:0000243c       ??_C@_0CM@FDGK@?$FLTASK?$FNCAN?5NOT?5LOAD?5WayPoint?5Sett@ 1008443c     KCore.obj
 0003:00002468       ??_C@_0BH@GGLN@?2settings?2WayPoint?4txt?$AA@ 10084468     KCore.obj
 0003:00002480       ??_C@_0CD@EJMI@NpcTempleSize?5is?5?$CFd?5?$CK?5?$CFd?5?$DN?5?$CFd?5BY@ 10084480     KCore.obj
 0003:000024a4       ??_C@_0O@IFO@Load?$CFsFail?$CB?$CB?$CB?$AA@ 100844a4     KCore.obj
 0003:000024b4       ??_C@_0BO@HIBM@?2settings?2npcres?2?H?K?N?o?$MA?$OA?P?M?4txt?$AA@ 100844b4     KCore.obj
 0003:000024d4       ??_C@_0BP@DKCL@?$FLCore?$FNTong?5cong?5co?5?$CFd?5kieu?5NPC?$AA@ 100844d4     KCore.obj
 0003:000024f4       ??_C@_0BD@GIPH@?W?S?$LF?z?$MA?$OA?U?$LM?S?C?$LP?U?$LM?d?N?$KK?$CFd?$AA@ 100844f4     KCore.obj
 0003:00002508       ??_C@_08BAIB@MissleId?$AA@ 10084508     KCore.obj
 0003:00002514       ??_C@_0BA@EGHE@Loadmap?$FL?$CFd?$FN?5ok?6?$AA@ 10084514     KSubWorld.obj
 0003:00002524       ??_C@_08LJLC@?2maps?2?$CFs?$AA@ 10084524     KSubWorld.obj
 0003:00002530       ??_C@_04IMHF@rect?$AA@     10084530     KSubWorld.obj
 0003:00002538       ??_C@_04BOOC@MAIN?$AA@     10084538     KSubWorld.obj
 0003:00002540       ??_C@_08PLIK@IsInDoor?$AA@ 10084540     KSubWorld.obj
 0003:0000254c       ??_C@_06DPCC@?$CFs?4wor?$AA@ 1008454c     KSubWorld.obj
 0003:00002554       ??_C@_05MPCN@?2maps?$AA@   10084554     KSubWorld.obj
 0003:0000255c       ??_C@_05IFEL@_name?$AA@    1008455c     KSubWorld.obj
 0003:00002564       ??_C@_04DECM@List?$AA@     10084564     KSubWorld.obj
 0003:0000256c       ??_C@_0M@NBEE@MapList?4ini?$AA@ 1008456c     KSubWorld.obj
 0003:00002578       ??_C@_09LAFI@?2settings?$AA@ 10084578     KSubWorld.obj
 0003:00002584       ??_C@_0CP@LMLF@Player?5change?5region?5to?5not?5exis@ 10084584     KSubWorld.obj
 0003:000025b4       ??_C@_0CK@CMDI@player?5Packing?5world?5sync?5data?5f@ 100845b4     KSubWorld.obj
 0003:000025e0       ??_C@_0BI@IHIF@mapedit_templatesection?$AA@ 100845e0     KSubWorld.obj
 0003:000025f8       ??_C@_04FCOP@Type?$AA@     100845f8     KSubWorld.obj
 0003:00002600       ??_C@_09PFB@_data?4ini?$AA@ 10084600     KSubWorld.obj
 0003:0000260c       ??_C@_05MNCH@event?$AA@    1008460c     KSubWorld.obj
 0003:00002614       ??_C@_0N@DEDD@groundoffset?$AA@ 10084614     KSubWorld.obj
 0003:00002624       ??_C@_01PCFE@?2?$AA@       10084624     KSubWorld.obj
 0003:00002628       ??_C@_0L@CFBG@elementnum?$AA@ 10084628     KSubWorld.obj
 0003:00002634       ??_C@_0BI@KFGE@Region?3?$CI?$CFd?$CJ?5Player?$CI?$CFd?$CJ?6?$AA@ 10084634     KSubWorld.obj
 0003:0000264c       ??_C@_05MKFP@World?$AA@    1008464c     KSubWorldSet.obj
 0003:00002654       ??_C@_08LPKH@World_?$CFd?$AA@ 10084654     KSubWorldSet.obj
 0003:00002660       ??_C@_04MIPP@Init?$AA@     10084660     KSubWorldSet.obj
 0003:00002668       ??_C@_0BE@PKPE@TimerScript?5error?$CB?$CB?$AA@ 10084668     KSubWorldSet.obj
 0003:0000267c       ??_C@_0O@CIOK@OnServerTimer?$AA@ 1008467c     KSubWorldSet.obj
 0003:0000268c       ??_C@_0O@CHBD@HappenTimeMax?$AA@ 1008468c     KWeatherMgr.obj
 0003:0000269c       ??_C@_0O@MEEF@HappenTimeMin?$AA@ 1008469c     KWeatherMgr.obj
 0003:000026ac       ??_C@_0M@IIHA@LifeTimeMax?$AA@ 100846ac     KWeatherMgr.obj
 0003:000026b8       ??_C@_0M@GLCG@LifeTimeMin?$AA@ 100846b8     KWeatherMgr.obj
 0003:000026c4       ??_C@_0M@DNFL@Weather?$CF?43d?$AA@ 100846c4     KWeatherMgr.obj
 0003:000026d0       ??_C@_06BPIM@Odds?$CFd?$AA@ 100846d0     KWeatherMgr.obj
 0003:000026d8       ??_C@_09NCEL@Weather?$CFd?$AA@ 100846d8     KWeatherMgr.obj
 0003:000026e4       ??_C@_07GGMB@Weather?$AA@  100846e4     KWeatherMgr.obj
 0003:000026ec       ??_C@_0L@GPHD@WeatherNum?$AA@ 100846ec     KWeatherMgr.obj
 0003:000026f8       ??_C@_0BO@LAIF@?2settings?2Weather?2Weather?4ini?$AA@ 100846f8     KWeatherMgr.obj
 0003:00002718       ??_C@_09FEEI@Npc_S?4dat?$AA@ 10084718     KRegion.obj
 0003:00002724       ??_C@_08GBBH@Trap?4dat?$AA@ 10084724     KRegion.obj
 0003:00002730       ??_C@_0N@OGMI@OBSTACLE?4DAT?$AA@ 10084730     KRegion.obj
 0003:00002740       ??_C@_0L@IOJF@?$CFs?2?$CF03d_?$CFs?$AA@ 10084740     KRegion.obj
 0003:0000274c       ??_C@_0N@OBCI@Region_C?4dat?$AA@ 1008474c     KRegion.obj
 0003:0000275c       ??_C@_09BMBH@?2?$CFsv_?$CF03d?$AA@ 1008475c     KRegion.obj
 0003:00002768       ?g_nSinBuffer@@3PAHA       10084768     KMath.obj
 0003:00002868       ?g_nCosBuffer@@3PAHA       10084868     KMath.obj
 0003:00002968       ?g_InternalDirSinCosCodeBuffer@@3PAEA 10084968     KMath.obj
 0003:0000298c       ?g_InternalIsAccrueConquerCodeBuffer@@3PAEA 1008498c     KMath.obj
 0003:000029b8       ?g_nSin@@3PAHA             100849b8     KMath.obj
 0003:000029bc       ?g_nCos@@3PAHA             100849bc     KMath.obj
 0003:000029c0       ?g_InternalDirSinCosCode@@3PAEA 100849c0     KMath.obj
 0003:000029c4       ?g_InternalIsAccrueConquerCode@@3PAEA 100849c4     KMath.obj
 0003:000029c8       ?g_nProtocolSize@@3PAHA    100849c8     KProtocol.obj
 0003:00002ce8       ??_C@_0BH@OBC@C?3?2LogPlayerPacket?4log?$AA@ 10084ce8     KProtocolProcess.obj
 0003:00002d00       ??_C@_0L@ILGN@?$CFs?9?$CFd?3?5?$CFs?6?$AA@ 10084d00     KProtocolProcess.obj
 0003:00002d0c       ??_C@_0BK@PHAO@C?3?2LogPlayerPacket?2?$CFs?4log?$AA@ 10084d0c     KProtocolProcess.obj
 0003:00002d28       ??_C@_03HHKO@?$CFs?6?$AA@  10084d28     KProtocolProcess.obj
 0003:00002d2c       ??_C@_06CLKB@?$CFs?$CF02X?$AA@ 10084d2c     KProtocolProcess.obj
 0003:00002d34       ??_C@_0BF@KCLP@?2script?2gmscript?4lua?$AA@ 10084d34     KProtocolProcess.obj
 0003:00002d4c       ??_C@_0BC@KGID@?$DM?$DM?$DM?$DM?$DM?$DM?$DM?$DM?$DM?$DM?$DM?$DM?$DM?$DM?$DM?$DM?6?$AA@ 10084d4c     KProtocolProcess.obj
 0003:00002d60       ??_C@_0BE@PCJN@TASK_?$CFd?3?5Value?$FL?$CFd?$FN?6?$AA@ 10084d60     KProtocolProcess.obj
 0003:00002d74       ??_C@_0HM@NDCL@Item?$CFd?3?$FL?$CFs?$FN?$DMId?$FL?$CFd?$FNG?3?$FL?$CFd?$FND?3?$FL?$CFd?$FNP?3@ 10084d74     KProtocolProcess.obj
 0003:00002df0       ??_C@_0HL@FHGM@Item1?3?$FL?$CFs?$FN?$DMId?$FL?$CFd?$FNG?3?$FL?$CFd?$FND?3?$FL?$CFd?$FNP?3?$FL@ 10084df0     KProtocolProcess.obj
 0003:00002e6c       ??_C@_0BM@FMCD@Skill_?$CFd?3?5Id?$DM?$CFd?$DO?5Level?$DM?$CFd?$DO?6?$AA@ 10084e6c     KProtocolProcess.obj
 0003:00002e88       ??_C@_0BAE@OGBC@?$DO?$DO?$DO?$FL?$CFd?9?$CFd?9?$CFd?5?$CFd?3?$CFd?3?$CFd?$FN?6Nhan?5Vat?3@ 10084e88     KProtocolProcess.obj
 0003:00002f8c       ??_C@_0L@HN@PlayerInfo?$AA@ 10084f8c     KProtocolProcess.obj
 0003:00002f98       ??_C@_03GMJO@a?$CLb?$AA@   10084f98     KProtocolProcess.obj
 0003:00002fa0       ?GameScriptFuns@@3PAUTLua_Funcs@@A 10084fa0     ScriptFuns.obj
 0003:00003958       ?WorldScriptFuns@@3PAUTLua_Funcs@@A 10085958     ScriptFuns.obj
 0003:00003988       ??_C@_0P@JEKD@KickOutAccount?$AA@ 10085988     ScriptFuns.obj
 0003:00003998       ??_C@_0N@LGLB@FadeOutMusic?$AA@ 10085998     ScriptFuns.obj
 0003:000039a8       ??_C@_0M@OLBE@FadeInMusic?$AA@ 100859a8     ScriptFuns.obj
 0003:000039b4       ??_C@_09MJFL@PlayMusic?$AA@ 100859b4     ScriptFuns.obj
 0003:000039c0       ??_C@_08MFHH@HaveCode?$AA@ 100859c0     ScriptFuns.obj
 0003:000039cc       ??_C@_0N@LMB@SetOnlineMin?$AA@ 100859cc     ScriptFuns.obj
 0003:000039dc       ??_C@_0N@GCMD@GetOnlineMin?$AA@ 100859dc     ScriptFuns.obj
 0003:000039ec       ??_C@_09IEJ@TransLife?$AA@ 100859ec     ScriptFuns.obj
 0003:000039f8       ??_C@_0N@BFFJ@QueryChannel?$AA@ 100859f8     ScriptFuns.obj
 0003:00003a08       ??_C@_06JCEL@Potion?$AA@   10085a08     ScriptFuns.obj
 0003:00003a10       ??_C@_07LEBK@SetPass?$AA@  10085a10     ScriptFuns.obj
 0003:00003a18       ??_C@_06HHMI@PutLog?$AA@   10085a18     ScriptFuns.obj
 0003:00003a20       ??_C@_0L@HMPO@GetAccount?$AA@ 10085a20     ScriptFuns.obj
 0003:00003a2c       ??_C@_0M@CEIJ@ArrangeData?$AA@ 10085a2c     ScriptFuns.obj
 0003:00003a38       ??_C@_0N@CIPC@SaveDataFile?$AA@ 10085a38     ScriptFuns.obj
 0003:00003a48       ??_C@_0L@IFME@FindDataId?$AA@ 10085a48     ScriptFuns.obj
 0003:00003a54       ??_C@_09EKHJ@SetDataGr?$AA@ 10085a54     ScriptFuns.obj
 0003:00003a60       ??_C@_09ELBP@AddDataGr?$AA@ 10085a60     ScriptFuns.obj
 0003:00003a6c       ??_C@_09GHNL@GetDataGr?$AA@ 10085a6c     ScriptFuns.obj
 0003:00003a78       ??_C@_0L@CMND@SetDataInt?$AA@ 10085a78     ScriptFuns.obj
 0003:00003a84       ??_C@_0L@OPPO@GetDataInt?$AA@ 10085a84     ScriptFuns.obj
 0003:00003a90       ??_C@_0L@IODH@ReLoadFile?$AA@ 10085a90     ScriptFuns.obj
 0003:00003a9c       ??_C@_09GDOD@CastSkill?$AA@ 10085a9c     ScriptFuns.obj
 0003:00003aa8       ??_C@_0O@FACP@AddSkillState?$AA@ 10085aa8     ScriptFuns.obj
 0003:00003ab8       ??_C@_0M@MFDN@AddSkillExp?$AA@ 10085ab8     ScriptFuns.obj
 0003:00003ac4       ??_C@_06FNLC@DelObj?$AA@   10085ac4     ScriptFuns.obj
 0003:00003acc       ??_C@_06BECH@AddObj?$AA@   10085acc     ScriptFuns.obj
 0003:00003ad4       ??_C@_09FMJH@CheckRoom?$AA@ 10085ad4     ScriptFuns.obj
 0003:00003ae0       ??_C@_0P@IHMA@AddEquipExTime?$AA@ 10085ae0     ScriptFuns.obj
 0003:00003af0       ??_C@_0BA@COAN@ChangeItemMagic?$AA@ 10085af0     ScriptFuns.obj
 0003:00003b00       ??_C@_0L@DGCJ@ItemSetAdd?$AA@ 10085b00     ScriptFuns.obj
 0003:00003b0c       ??_C@_0P@NFDI@SetItemPickDel?$AA@ 10085b0c     ScriptFuns.obj
 0003:00003b1c       ??_C@_0M@MGAK@SetItemRich?$AA@ 10085b1c     ScriptFuns.obj
 0003:00003b28       ??_C@_0M@FMEH@RestoreItem?$AA@ 10085b28     ScriptFuns.obj
 0003:00003b34       ??_C@_09GJAO@AddItemID?$AA@ 10085b34     ScriptFuns.obj
 0003:00003b40       ??_C@_09CHMK@AddItemAt?$AA@ 10085b40     ScriptFuns.obj
 0003:00003b4c       ??_C@_0N@ELAK@GetItemLevel?$AA@ 10085b4c     ScriptFuns.obj
 0003:00003b5c       ??_C@_0M@HHFK@GetItemLock?$AA@ 10085b5c     ScriptFuns.obj
 0003:00003b68       ??_C@_0N@ODLI@GetItemMagic?$AA@ 10085b68     ScriptFuns.obj
 0003:00003b78       ??_C@_0N@OFMP@GetItemParam?$AA@ 10085b78     ScriptFuns.obj
 0003:00003b88       ??_C@_0L@EKNB@FinishDice?$AA@ 10085b88     ScriptFuns.obj
 0003:00003b94       ??_C@_08IIEK@OpenDice?$AA@ 10085b94     ScriptFuns.obj
 0003:00003ba0       ??_C@_07GNMC@AddTrap?$AA@  10085ba0     ScriptFuns.obj
 0003:00003ba8       ??_C@_07NOCA@AddCoin?$AA@  10085ba8     ScriptFuns.obj
 0003:00003bb0       ??_C@_07PJAA@PayCoin?$AA@  10085bb0     ScriptFuns.obj
 0003:00003bb8       ??_C@_07KOKI@GetCoin?$AA@  10085bb8     ScriptFuns.obj
 0003:00003bc0       ??_C@_07EKKJ@GetProp?$AA@  10085bc0     ScriptFuns.obj
 0003:00003bc8       ??_C@_07DKCB@AddProp?$AA@  10085bc8     ScriptFuns.obj
 0003:00003bd0       ??_C@_0L@POIA@ClearSkill?$AA@ 10085bd0     ScriptFuns.obj
 0003:00003bdc       ??_C@_08OBC@MakeLove?$AA@  10085bdc     ScriptFuns.obj
 0003:00003be8       ??_C@_09CMCM@SetPunish?$AA@ 10085be8     ScriptFuns.obj
 0003:00003bf4       ??_C@_08JNGG@OpenTong?$AA@ 10085bf4     ScriptFuns.obj
 0003:00003c00       ??_C@_0L@FHGL@ShowLadder?$AA@ 10085c00     ScriptFuns.obj
 0003:00003c0c       ??_C@_09JNGK@SetPKMode?$AA@ 10085c0c     ScriptFuns.obj
 0003:00003c18       ??_C@_05MFDB@SetPK?$AA@    10085c18     ScriptFuns.obj
 0003:00003c20       ??_C@_05EHPB@GetPK?$AA@    10085c20     ScriptFuns.obj
 0003:00003c28       ??_C@_0O@JBJ@SetCreateTeam?$AA@ 10085c28     ScriptFuns.obj
 0003:00003c38       ??_C@_0M@CJLJ@SetLogoutRV?$AA@ 10085c38     ScriptFuns.obj
 0003:00003c44       ??_C@_07BCHA@HideNpc?$AA@  10085c44     ScriptFuns.obj
 0003:00003c4c       ??_C@_0N@NEE@SetDmgScript?$AA@ 10085c4c     ScriptFuns.obj
 0003:00003c5c       ??_C@_0P@FOCJ@SetDeathScript?$AA@ 10085c5c     ScriptFuns.obj
 0003:00003c6c       ??_C@_0L@ELH@SendReport?$AA@ 10085c6c     ScriptFuns.obj
 0003:00003c78       ??_C@_09GMFA@Msg2MSAll?$AA@ 10085c78     ScriptFuns.obj
 0003:00003c84       ??_C@_0M@PPLD@Msg2MSGroup?$AA@ 10085c84     ScriptFuns.obj
 0003:00003c90       ??_C@_0L@PBCH@GetPMParam?$AA@ 10085c90     ScriptFuns.obj
 0003:00003c9c       ??_C@_0L@DCAK@SetPMParam?$AA@ 10085c9c     ScriptFuns.obj
 0003:00003ca8       ??_C@_0O@HHAI@RevivalAllNpc?$AA@ 10085ca8     ScriptFuns.obj
 0003:00003cb8       ??_C@_0BA@GJAI@GetMSGroupCount?$AA@ 10085cb8     ScriptFuns.obj
 0003:00003cc8       ??_C@_0BB@PMB@GetMSPlayerCount?$AA@ 10085cc8     ScriptFuns.obj
 0003:00003cdc       ??_C@_0O@BDFI@GetMSPlayerID?$AA@ 10085cdc     ScriptFuns.obj
 0003:00003cec       ??_C@_0M@CKFB@NpcIdx2PIdx?$AA@ 10085cec     ScriptFuns.obj
 0003:00003cf8       ??_C@_0M@HLDD@MSDIdx2PIdx?$AA@ 10085cf8     ScriptFuns.obj
 0003:00003d04       ??_C@_0M@DHHI@PIdx2MSDIdx?$AA@ 10085d04     ScriptFuns.obj
 0003:00003d10       ??_C@_08ENLP@DelMSNpc?$AA@ 10085d10     ScriptFuns.obj
 0003:00003d1c       ??_C@_08KGLP@AddMSNpc?$AA@ 10085d1c     ScriptFuns.obj
 0003:00003d28       ??_C@_0M@BFJJ@DelMSPlayer?$AA@ 10085d28     ScriptFuns.obj
 0003:00003d34       ??_C@_0M@MIKK@AddMSPlayer?$AA@ 10085d34     ScriptFuns.obj
 0003:00003d40       ??_C@_0O@EMCK@GetMSIdxGroup?$AA@ 10085d40     ScriptFuns.obj
 0003:00003d50       ??_C@_0O@GDLP@GetMSRestTime?$AA@ 10085d50     ScriptFuns.obj
 0003:00003d60       ??_C@_0BB@FPEI@StopMissionTimer?$AA@ 10085d60     ScriptFuns.obj
 0003:00003d74       ??_C@_0BC@FFEF@StartMissionTimer?$AA@ 10085d74     ScriptFuns.obj
 0003:00003d88       ??_C@_0N@LOFK@CloseMission?$AA@ 10085d88     ScriptFuns.obj
 0003:00003d98       ??_C@_0L@KAIM@RunMission?$AA@ 10085d98     ScriptFuns.obj
 0003:00003da4       ??_C@_09GOFB@IsMission?$AA@ 10085da4     ScriptFuns.obj
 0003:00003db0       ??_C@_0M@BOC@OpenMission?$AA@ 10085db0     ScriptFuns.obj
 0003:00003dbc       ??_C@_0P@JDOI@SetGlbMissionV?$AA@ 10085dbc     ScriptFuns.obj
 0003:00003dcc       ??_C@_0P@BHLL@GetGlbMissionV?$AA@ 10085dcc     ScriptFuns.obj
 0003:00003ddc       ??_C@_0M@PEJK@SetMissionV?$AA@ 10085ddc     ScriptFuns.obj
 0003:00003de8       ??_C@_0M@PGFJ@GetMissionV?$AA@ 10085de8     ScriptFuns.obj
 0003:00003df4       ??_C@_07HMFG@AddNote?$AA@  10085df4     ScriptFuns.obj
 0003:00003dfc       ??_C@_0M@DDHF@SetChatFlag?$AA@ 10085dfc     ScriptFuns.obj
 0003:00003e08       ??_C@_0L@LFKG@GetSkillId?$AA@ 10085e08     ScriptFuns.obj
 0003:00003e14       ??_C@_0M@MCLF@KickOutSelf?$AA@ 10085e14     ScriptFuns.obj
 0003:00003e20       ??_C@_0O@LLHA@KickOutPlayer?$AA@ 10085e20     ScriptFuns.obj
 0003:00003e30       ??_C@_0O@PMLI@GetServerName?$AA@ 10085e30     ScriptFuns.obj
 0003:00003e40       ??_C@_0N@HFBA@SetPropState?$AA@ 10085e40     ScriptFuns.obj
 0003:00003e50       ??_C@_0N@NNHP@LockMoveItem?$AA@ 10085e50     ScriptFuns.obj
 0003:00003e60       ??_C@_09GNFH@GetRankEx?$AA@ 10085e60     ScriptFuns.obj
 0003:00003e6c       ??_C@_09EAPF@SetRankEx?$AA@ 10085e6c     ScriptFuns.obj
 0003:00003e78       ??_C@_07JAIL@SetRank?$AA@  10085e78     ScriptFuns.obj
 0003:00003e80       ??_C@_07MDIH@GetRank?$AA@  10085e80     ScriptFuns.obj
 0003:00003e88       ??_C@_0P@FLMF@GetPlayerCount?$AA@ 10085e88     ScriptFuns.obj
 0003:00003e98       ??_C@_0BB@EINH@GetWayPointFight?$AA@ 10085e98     ScriptFuns.obj
 0003:00003eac       ??_C@_0P@HEDM@GetWayPointPos?$AA@ 10085eac     ScriptFuns.obj
 0003:00003ebc       ??_C@_0BA@KNAC@GetWayPointName?$AA@ 10085ebc     ScriptFuns.obj
 0003:00003ecc       ??_C@_0M@IHOF@GetWayPoint?$AA@ 10085ecc     ScriptFuns.obj
 0003:00003ed8       ??_C@_0M@FDIF@AddWayPoint?$AA@ 10085ed8     ScriptFuns.obj
 0003:00003ee4       ??_C@_0N@DJCD@GetCityCount?$AA@ 10085ee4     ScriptFuns.obj
 0003:00003ef4       ??_C@_0O@CFDB@GetStationPos?$AA@ 10085ef4     ScriptFuns.obj
 0003:00003f04       ??_C@_0BA@FINB@GetPriceStation?$AA@ 10085f04     ScriptFuns.obj
 0003:00003f14       ??_C@_0P@MOFD@GetStationName?$AA@ 10085f14     ScriptFuns.obj
 0003:00003f24       ??_C@_0M@DBNO@OpenEnchase?$AA@ 10085f24     ScriptFuns.obj
 0003:00003f30       ??_C@_07DIEO@OpenBox?$AA@  10085f30     ScriptFuns.obj
 0003:00003f38       ??_C@_0N@EDNN@BackOldPlace?$AA@ 10085f38     ScriptFuns.obj
 0003:00003f48       ??_C@_08KKBB@BackHome?$AA@ 10085f48     ScriptFuns.obj
 0003:00003f54       ??_C@_04JMNJ@Sale?$AA@     10085f54     ScriptFuns.obj
 0003:00003f5c       ??_C@_0L@LKLP@KillPlayer?$AA@ 10085f5c     ScriptFuns.obj
 0003:00003f68       ??_C@_0M@MOEK@FindNearNpc?$AA@ 10085f68     ScriptFuns.obj
 0003:00003f74       ??_C@_07GPCG@KillNpc?$AA@  10085f74     ScriptFuns.obj
 0003:00003f7c       ??_C@_09BDCA@ExeScript?$AA@ 10085f7c     ScriptFuns.obj
 0003:00003f88       ??_C@_04BFBH@Earn?$AA@     10085f88     ScriptFuns.obj
 0003:00003f90       ??_C@_03GNOC@Pay?$AA@      10085f90     ScriptFuns.obj
 0003:00003f94       ??_C@_07NPLA@GetCash?$AA@  10085f94     ScriptFuns.obj
 0003:00003f9c       ??_C@_09JPOL@ResetProp?$AA@ 10085f9c     ScriptFuns.obj
 0003:00003fa8       ??_C@_0L@HAGC@TongAddMem?$AA@ 10085fa8     ScriptFuns.obj
 0003:00003fb4       ??_C@_0M@DPJM@GetTongName?$AA@ 10085fb4     ScriptFuns.obj
 0003:00003fc0       ??_C@_06PPLJ@SetVit?$AA@   10085fc0     ScriptFuns.obj
 0003:00003fc8       ??_C@_07PFEM@SetStrg?$AA@  10085fc8     ScriptFuns.obj
 0003:00003fd0       ??_C@_06GLOE@SetDex?$AA@   10085fd0     ScriptFuns.obj
 0003:00003fd8       ??_C@_06BPHE@SetEng?$AA@   10085fd8     ScriptFuns.obj
 0003:00003fe0       ??_C@_06PDDL@GetVit?$AA@   10085fe0     ScriptFuns.obj
 0003:00003fe8       ??_C@_07KGEA@GetStrg?$AA@  10085fe8     ScriptFuns.obj
 0003:00003ff0       ??_C@_06GHGG@GetDex?$AA@   10085ff0     ScriptFuns.obj
 0003:00003ff8       ??_C@_06BDPG@GetEng?$AA@   10085ff8     ScriptFuns.obj
 0003:00004000       ??_C@_08DDIM@GetLucky?$AA@ 10086000     ScriptFuns.obj
 0003:0000400c       ??_C@_09DGNJ@GetRestSP?$AA@ 1008600c     ScriptFuns.obj
 0003:00004018       ??_C@_09HBCF@GetRestAP?$AA@ 10086018     ScriptFuns.obj
 0003:00004024       ??_C@_08JEMI@SetLevel?$AA@ 10086024     ScriptFuns.obj
 0003:00004030       ??_C@_08DGJL@GetLevel?$AA@ 10086030     ScriptFuns.obj
 0003:0000403c       ??_C@_0L@DAMJ@GetLeadExp?$AA@ 1008603c     ScriptFuns.obj
 0003:00004048       ??_C@_0L@JAJG@FindPlayer?$AA@ 10086048     ScriptFuns.obj
 0003:00004054       ??_C@_07PFGG@GetUUID?$AA@  10086054     ScriptFuns.obj
 0003:0000405c       ??_C@_0M@ELEI@GetLoveName?$AA@ 1008605c     ScriptFuns.obj
 0003:00004068       ??_C@_07LJEL@GetName?$AA@  10086068     ScriptFuns.obj
 0003:00004070       ??_C@_09GFEH@SetSeries?$AA@ 10086070     ScriptFuns.obj
 0003:0000407c       ??_C@_09EIOF@GetSeries?$AA@ 1008607c     ScriptFuns.obj
 0003:00004088       ??_C@_06PIGN@GetSex?$AA@   10086088     ScriptFuns.obj
 0003:00004090       ??_C@_09JADP@GetDefend?$AA@ 10086090     ScriptFuns.obj
 0003:0000409c       ??_C@_0L@ODBA@SetStamina?$AA@ 1008609c     ScriptFuns.obj
 0003:000040a8       ??_C@_07LOPN@SetLife?$AA@  100860a8     ScriptFuns.obj
 0003:000040b0       ??_C@_07BEBC@SetMana?$AA@  100860b0     ScriptFuns.obj
 0003:000040b8       ??_C@_0P@GLIH@RestoreStamina?$AA@ 100860b8     ScriptFuns.obj
 0003:000040c8       ??_C@_0L@CADN@GetStamina?$AA@ 100860c8     ScriptFuns.obj
 0003:000040d4       ??_C@_0M@ICGG@RestoreMana?$AA@ 100860d4     ScriptFuns.obj
 0003:000040e0       ??_C@_07EHBO@GetMana?$AA@  100860e0     ScriptFuns.obj
 0003:000040e8       ??_C@_0M@CIIJ@RestoreLife?$AA@ 100860e8     ScriptFuns.obj
 0003:000040f4       ??_C@_07ONPB@GetLife?$AA@  100860f4     ScriptFuns.obj
 0003:000040fc       ??_C@_09JLDK@AddOwnExp?$AA@ 100860fc     ScriptFuns.obj
 0003:00004108       ??_C@_06HKPB@AddExp?$AA@   10086108     ScriptFuns.obj
 0003:00004110       ??_C@_0L@NOFN@GetExpNext?$AA@ 10086110     ScriptFuns.obj
 0003:0000411c       ??_C@_06PCDF@GetExp?$AA@   1008611c     ScriptFuns.obj
 0003:00004124       ??_C@_07EFMD@GetPhyR?$AA@  10086124     ScriptFuns.obj
 0003:0000412c       ??_C@_0L@FDEJ@GetPoisonR?$AA@ 1008612c     ScriptFuns.obj
 0003:00004138       ??_C@_09OFGA@GetLightR?$AA@ 10086138     ScriptFuns.obj
 0003:00004144       ??_C@_08NACD@GetFireR?$AA@ 10086144     ScriptFuns.obj
 0003:00004150       ??_C@_08GEHN@GetColdR?$AA@ 10086150     ScriptFuns.obj
 0003:0000415c       ??_C@_0L@JAGE@SetPoisonR?$AA@ 1008615c     ScriptFuns.obj
 0003:00004168       ??_C@_07BGMP@SetPhyR?$AA@  10086168     ScriptFuns.obj
 0003:00004170       ??_C@_09MIMC@SetLightR?$AA@ 10086170     ScriptFuns.obj
 0003:0000417c       ??_C@_08HCHA@SetFireR?$AA@ 1008617c     ScriptFuns.obj
 0003:00004188       ??_C@_08MGCO@SetColdR?$AA@ 10086188     ScriptFuns.obj
 0003:00004194       ??_C@_0N@EBKD@SetFactionNo?$AA@ 10086194     ScriptFuns.obj
 0003:000041a4       ??_C@_0L@KPF@SetFaction?$AA@ 100861a4     ScriptFuns.obj
 0003:000041b0       ??_C@_0N@CIKB@GetFactionNo?$AA@ 100861b0     ScriptFuns.obj
 0003:000041c0       ??_C@_0L@MJNI@GetFaction?$AA@ 100861c0     ScriptFuns.obj
 0003:000041cc       ??_C@_0M@EPAC@RestoreCamp?$AA@ 100861cc     ScriptFuns.obj
 0003:000041d8       ??_C@_07NJHG@SetCamp?$AA@  100861d8     ScriptFuns.obj
 0003:000041e0       ??_C@_0L@IKED@SetCurCamp?$AA@ 100861e0     ScriptFuns.obj
 0003:000041ec       ??_C@_07IKHK@GetCamp?$AA@  100861ec     ScriptFuns.obj
 0003:000041f4       ??_C@_0L@EJGO@GetCurCamp?$AA@ 100861f4     ScriptFuns.obj
 0003:00004200       ??_C@_0O@CHHD@SetTempRevPos?$AA@ 10086200     ScriptFuns.obj
 0003:00004210       ??_C@_0M@FAM@GetCurRevID?$AA@ 10086210     ScriptFuns.obj
 0003:0000421c       ??_C@_09HBBA@GetRevPos?$AA@ 1008621c     ScriptFuns.obj
 0003:00004228       ??_C@_09FMLC@SetRevPos?$AA@ 10086228     ScriptFuns.obj
 0003:00004234       ??_C@_0M@NPNA@GetNpcValue?$AA@ 10086234     ScriptFuns.obj
 0003:00004240       ??_C@_0M@NNBD@SetNpcValue?$AA@ 10086240     ScriptFuns.obj
 0003:0000424c       ??_C@_0N@EMKH@DropNpcMoney?$AA@ 1008624c     ScriptFuns.obj
 0003:0000425c       ??_C@_0O@EEGI@DropNpcItemID?$AA@ 1008625c     ScriptFuns.obj
 0003:0000426c       ??_C@_0M@NABH@DropNpcItem?$AA@ 1008626c     ScriptFuns.obj
 0003:00004278       ??_C@_0P@HDPD@GetNpcLifeTime?$AA@ 10086278     ScriptFuns.obj
 0003:00004288       ??_C@_0M@KMEG@GetBossType?$AA@ 10086288     ScriptFuns.obj
 0003:00004294       ??_C@_09HGAC@GetNpcLev?$AA@ 10086294     ScriptFuns.obj
 0003:000042a0       ??_C@_0L@KPNL@GetNpcLife?$AA@ 100862a0     ScriptFuns.obj
 0003:000042ac       ??_C@_09NDOA@GetNpcSer?$AA@ 100862ac     ScriptFuns.obj
 0003:000042b8       ??_C@_08JEDI@GetNpcID?$AA@ 100862b8     ScriptFuns.obj
 0003:000042c4       ??_C@_0BA@PFHA@SetNpcCancelDmg?$AA@ 100862c4     ScriptFuns.obj
 0003:000042d4       ??_C@_0N@EOJM@SetNpcAIMode?$AA@ 100862d4     ScriptFuns.obj
 0003:000042e4       ??_C@_0N@DPPO@SetNpcDmgRet?$AA@ 100862e4     ScriptFuns.obj
 0003:000042f4       ??_C@_0M@EKC@SetNpcDmgEx?$AA@ 100862f4     ScriptFuns.obj
 0003:00004300       ??_C@_0P@PHKA@SetNpcLifeTime?$AA@ 10086300     ScriptFuns.obj
 0003:00004310       ??_C@_07NHFN@SetBoss?$AA@  10086310     ScriptFuns.obj
 0003:00004318       ??_C@_0O@HOBP@SetNpcCurCamp?$AA@ 10086318     ScriptFuns.obj
 0003:00004328       ??_C@_0BB@LKBJ@SetNpcDropScript?$AA@ 10086328     ScriptFuns.obj
 0003:0000433c       ??_C@_0N@IKMK@SetNpcScript?$AA@ 1008633c     ScriptFuns.obj
 0003:0000434c       ??_C@_0L@DIEM@SetNpcName?$AA@ 1008634c     ScriptFuns.obj
 0003:00004358       ??_C@_0M@IPEN@SetNpcSpeed?$AA@ 10086358     ScriptFuns.obj
 0003:00004364       ??_C@_0M@LAKD@SetNpcSkill?$AA@ 10086364     ScriptFuns.obj
 0003:00004370       ??_C@_0BB@JFGA@SetNpcHitRecover?$AA@ 10086370     ScriptFuns.obj
 0003:00004384       ??_C@_0O@PFNG@SetNpcRevTime?$AA@ 10086384     ScriptFuns.obj
 0003:00004394       ??_C@_0N@MBBI@SetNpcResist?$AA@ 10086394     ScriptFuns.obj
 0003:000043a4       ??_C@_0N@GFED@SetNpcDamage?$AA@ 100863a4     ScriptFuns.obj
 0003:000043b4       ??_C@_0O@DFPG@SetNpcDefense?$AA@ 100863b4     ScriptFuns.obj
 0003:000043c4       ??_C@_08NFDN@SetNpcAR?$AA@ 100863c4     ScriptFuns.obj
 0003:000043d0       ??_C@_0BA@CHDM@SetNpcReplenish?$AA@ 100863d0     ScriptFuns.obj
 0003:000043e0       ??_C@_0L@GMPG@SetNpcLife?$AA@ 100863e0     ScriptFuns.obj
 0003:000043ec       ??_C@_09PFIM@SetNpcExp?$AA@ 100863ec     ScriptFuns.obj
 0003:000043f8       ??_C@_09POEC@SetNpcSer?$AA@ 100863f8     ScriptFuns.obj
 0003:00004404       ??_C@_06LGHH@DelNpc?$AA@   10086404     ScriptFuns.obj
 0003:0000440c       ??_C@_06PPOC@AddNpc?$AA@   1008640c     ScriptFuns.obj
 0003:00004414       ??_C@_0O@GOM@GetFightState?$AA@ 10086414     ScriptFuns.obj
 0003:00004424       ??_C@_0O@FFIF@SetFightState?$AA@ 10086424     ScriptFuns.obj
 0003:00004434       ??_C@_0N@MIFC@GetLeadLevel?$AA@ 10086434     ScriptFuns.obj
 0003:00004444       ??_C@_0L@FAOF@AddLeadExp?$AA@ 10086444     ScriptFuns.obj
 0003:00004450       ??_C@_0BA@ICLP@GetSubWorldName?$AA@ 10086450     ScriptFuns.obj
 0003:00004460       ??_C@_0P@DEC@SubWorldID2Idx?$AA@ 10086460     ScriptFuns.obj
 0003:00004470       ??_C@_08EIMA@IncSkill?$AA@ 10086470     ScriptFuns.obj
 0003:0000447c       ??_C@_0BA@LBDL@ResetMagicPoint?$AA@ 1008647c     ScriptFuns.obj
 0003:0000448c       ??_C@_0O@PHNM@GetMagicPoint?$AA@ 1008648c     ScriptFuns.obj
 0003:0000449c       ??_C@_0O@NFKG@AddMagicPoint?$AA@ 1008649c     ScriptFuns.obj
 0003:000044ac       ??_C@_0O@GINP@GetMagicLevel?$AA@ 100864ac     ScriptFuns.obj
 0003:000044bc       ??_C@_08LBFJ@DelMagic?$AA@ 100864bc     ScriptFuns.obj
 0003:000044c8       ??_C@_08FKFJ@AddMagic?$AA@ 100864c8     ScriptFuns.obj
 0003:000044d4       ??_C@_07OJPO@DelItem?$AA@  100864d4     ScriptFuns.obj
 0003:000044dc       ??_C@_0L@FNHH@RemoveItem?$AA@ 100864dc     ScriptFuns.obj
 0003:000044e8       ??_C@_08ELAI@LockItem?$AA@ 100864e8     ScriptFuns.obj
 0003:000044f4       ??_C@_0L@GGFD@FreezeItem?$AA@ 100864f4     ScriptFuns.obj
 0003:00004500       ??_C@_0M@IDPN@SetItemDate?$AA@ 10086500     ScriptFuns.obj
 0003:0000450c       ??_C@_0N@MPLG@GetItemCount?$AA@ 1008650c     ScriptFuns.obj
 0003:0000451c       ??_C@_07OJLH@AddItem?$AA@  1008651c     ScriptFuns.obj
 0003:00004524       ??_C@_08LNBJ@NewWorld?$AA@ 10086524     ScriptFuns.obj
 0003:00004530       ??_C@_0M@CHKB@GetWorldPos?$AA@ 10086530     ScriptFuns.obj
 0003:0000453c       ??_C@_06DNFG@GetPos?$AA@   1008653c     ScriptFuns.obj
 0003:00004544       ??_C@_06DBNE@SetPos?$AA@   10086544     ScriptFuns.obj
 0003:0000454c       ??_C@_05IMNH@GetIP?$AA@    1008654c     ScriptFuns.obj
 0003:00004554       ??_C@_07OCBM@GetInfo?$AA@  10086554     ScriptFuns.obj
 0003:0000455c       ??_C@_06CPOM@Msg2IP?$AA@   1008655c     ScriptFuns.obj
 0003:00004564       ??_C@_06BAEE@Msg2GM?$AA@   10086564     ScriptFuns.obj
 0003:0000456c       ??_C@_0L@NFNI@Msg2Region?$AA@ 1008656c     ScriptFuns.obj
 0003:00004578       ??_C@_0N@ICDI@Msg2SubWorld?$AA@ 10086578     ScriptFuns.obj
 0003:00004588       ??_C@_08DOHE@Msg2Team?$AA@ 10086588     ScriptFuns.obj
 0003:00004594       ??_C@_09HJEP@MsgSystem?$AA@ 10086594     ScriptFuns.obj
 0003:000045a0       ??_C@_0L@GOIE@Msg2Player?$AA@ 100865a0     ScriptFuns.obj
 0003:000045ac       ??_C@_09ODJA@LeaveTeam?$AA@ 100865ac     ScriptFuns.obj
 0003:000045b8       ??_C@_0L@FMLH@GetTeamMem?$AA@ 100865b8     ScriptFuns.obj
 0003:000045c4       ??_C@_0M@EGPJ@GetTeamSize?$AA@ 100865c4     ScriptFuns.obj
 0003:000045d0       ??_C@_07HPEC@GetTeam?$AA@  100865d0     ScriptFuns.obj
 0003:000045d8       ??_C@_09KNBL@IsCaptain?$AA@ 100865d8     ScriptFuns.obj
 0003:000045e4       ??_C@_07NMJK@SetTask?$AA@  100865e4     ScriptFuns.obj
 0003:000045ec       ??_C@_07IPJG@GetTask?$AA@  100865ec     ScriptFuns.obj
 0003:000045f4       ??_C@_0L@BMFO@GetTimeMin?$AA@ 100865f4     ScriptFuns.obj
 0003:00004600       ??_C@_07BMOL@GetTime?$AA@  10086600     ScriptFuns.obj
 0003:00004608       ??_C@_0L@IFPB@GetTimerId?$AA@ 10086608     ScriptFuns.obj
 0003:00004614       ??_C@_0M@NFEE@GetRestTime?$AA@ 10086614     ScriptFuns.obj
 0003:00004620       ??_C@_09BPHN@StopTimer?$AA@ 10086620     ScriptFuns.obj
 0003:0000462c       ??_C@_08GNDB@SetTimer?$AA@ 1008662c     ScriptFuns.obj
 0003:00004638       ??_C@_08OIPH@GetExBox?$AA@ 10086638     ScriptFuns.obj
 0003:00004644       ??_C@_08EKKE@SetExBox?$AA@ 10086644     ScriptFuns.obj
 0003:00004650       ??_C@_06FDCE@RANDOM?$AA@   10086650     ScriptFuns.obj
 0003:00004658       ??_C@_0BA@BEMH@GetPlayerNpcIdx?$AA@ 10086658     ScriptFuns.obj
 0003:00004668       ??_C@_08ONHK@IncPoint?$AA@ 10086668     ScriptFuns.obj
 0003:00004674       ??_C@_08OEAB@GetBonus?$AA@ 10086674     ScriptFuns.obj
 0003:00004680       ??_C@_08PNFO@GetHonor?$AA@ 10086680     ScriptFuns.obj
 0003:0000468c       ??_C@_08DDPF@GetAccum?$AA@ 1008668c     ScriptFuns.obj
 0003:00004698       ??_C@_08JKIG@GetBless?$AA@ 10086698     ScriptFuns.obj
 0003:000046a4       ??_C@_09EEGF@GetRepute?$AA@ 100866a4     ScriptFuns.obj
 0003:000046b0       ??_C@_08CAHB@AddBonus?$AA@ 100866b0     ScriptFuns.obj
 0003:000046bc       ??_C@_08DJCO@AddHonor?$AA@ 100866bc     ScriptFuns.obj
 0003:000046c8       ??_C@_08PHIF@AddAccum?$AA@ 100866c8     ScriptFuns.obj
 0003:000046d4       ??_C@_08FOPG@AddBless?$AA@ 100866d4     ScriptFuns.obj
 0003:000046e0       ??_C@_09GIKB@AddRepute?$AA@ 100866e0     ScriptFuns.obj
 0003:000046ec       ??_C@_0M@MGF@GetNpcCount?$AA@ 100866ec     ScriptFuns.obj
 0003:000046f8       ??_C@_0N@IOIL@GetTotalItem?$AA@ 100866f8     ScriptFuns.obj
 0003:00004708       ??_C@_0O@EKIF@AddCountNews2?$AA@ 10086708     ScriptFuns.obj
 0003:00004718       ??_C@_0N@BGKA@AddTimeNews2?$AA@ 10086718     ScriptFuns.obj
 0003:00004728       ??_C@_08FKJL@AddNews2?$AA@ 10086728     ScriptFuns.obj
 0003:00004734       ??_C@_0N@DLCK@AddCountNews?$AA@ 10086734     ScriptFuns.obj
 0003:00004744       ??_C@_0M@BONL@AddTimeNews?$AA@ 10086744     ScriptFuns.obj
 0003:00004750       ??_C@_07CFDD@AddNews?$AA@  10086750     ScriptFuns.obj
 0003:00004758       ??_C@_0L@JJKJ@PutMessage?$AA@ 10086758     ScriptFuns.obj
 0003:00004764       ??_C@_07HBPN@Include?$AA@  10086764     ScriptFuns.obj
 0003:0000476c       ??_C@_0L@OJBO@GetNumber3?$AA@ 1008676c     ScriptFuns.obj
 0003:00004778       ??_C@_0L@CKDD@SetNumber3?$AA@ 10086778     ScriptFuns.obj
 0003:00004784       ??_C@_0L@EDIJ@GetNumber2?$AA@ 10086784     ScriptFuns.obj
 0003:00004790       ??_C@_0L@IAKE@SetNumber2?$AA@ 10086790     ScriptFuns.obj
 0003:0000479c       ??_C@_09DHIF@GetNumber?$AA@ 1008679c     ScriptFuns.obj
 0003:000047a8       ??_C@_09BKCH@SetNumber?$AA@ 100867a8     ScriptFuns.obj
 0003:000047b4       ??_C@_07CNBH@SetByte?$AA@  100867b4     ScriptFuns.obj
 0003:000047bc       ??_C@_06JGIJ@SetBit?$AA@   100867bc     ScriptFuns.obj
 0003:000047c4       ??_C@_07HOBL@GetByte?$AA@  100867c4     ScriptFuns.obj
 0003:000047cc       ??_C@_06JKAL@GetBit?$AA@   100867cc     ScriptFuns.obj
 0003:000047d4       ??_C@_07NNP@Message?$AA@   100867d4     ScriptFuns.obj
 0003:000047dc       ??_C@_0M@MPOH@SetTaskTemp?$AA@ 100867dc     ScriptFuns.obj
 0003:000047e8       ??_C@_0M@MNCE@GetTaskTemp?$AA@ 100867e8     ScriptFuns.obj
 0003:000047f4       ??_C@_04MNKN@Talk?$AA@     100867f4     ScriptFuns.obj
 0003:000047fc       ??_C@_05OIKH@Input?$AA@    100867fc     ScriptFuns.obj
 0003:00004804       ??_C@_0L@ICOO@PutTremble?$AA@ 10086804     ScriptFuns.obj
 0003:00004810       ??_C@_07ODIP@PutItem?$AA@  10086810     ScriptFuns.obj
 0003:00004818       ??_C@_09KID@GetReward?$AA@ 10086818     ScriptFuns.obj
 0003:00004824       ??_C@_04ODCF@Say2?$AA@     10086824     ScriptFuns.obj
 0003:0000482c       ??_C@_03JLNJ@Say?$AA@      1008682c     ScriptFuns.obj
 0003:00004830       ??_C@_04DIJO@?$CF09d?$AA@  10086830     ScriptFuns.obj
 0003:00004838       ??_C@_04LGDF@?$CF02d?$AA@  10086838     ScriptFuns.obj
 0003:00004840       ??_C@_04KAJP@?$CF03d?$AA@  10086840     ScriptFuns.obj
 0003:00004848       ??_C@_05OGEL@?$CFs?$HM?$CFs?$AA@ 10086848     ScriptFuns.obj
 0003:00004850       ??_C@_01FDLN@?1?$AA@       10086850     ScriptFuns.obj
 0003:00004854       ??_C@_02DILL@?$CFs?$AA@    10086854     ScriptFuns.obj
 0003:00004858       ??_C@_01FCOA@?5?$AA@       10086858     ScriptFuns.obj
 0003:0000485c       ??_C@_05DNHK@?$CFs?$CFd?$HM?$AA@ 1008685c     ScriptFuns.obj
 0003:00004864       ??_C@_05DGIG@?$CFs?$CFs?$HM?$AA@ 10086864     ScriptFuns.obj
 0003:0000486c       ??_C@_0L@PMO@targetname?$AA@ 1008686c     ScriptFuns.obj
 0003:00004878       ??_C@_0BO@JPJJ@GM?5Kick?5out?5specific?5player?4?6?$AA@ 10086878     ScriptFuns.obj
 0003:00004898       ??_C@_04PPKB@DESC?$AA@     10086898     ScriptFuns.obj
 0003:000048a0       ??_C@_06MDNL@?N?$NO?C?$PL?$LD?G?$AA@ 100868a0     ScriptFuns.obj
 0003:000048a8       ??_C@_05LBOG@0?00?00?$AA@  100868a8     ScriptFuns.obj
 0003:000048b0       ??_C@_06LGMI@SECT?$CFd?$AA@ 100868b0     ScriptFuns.obj
 0003:000048b8       ??_C@_05BNPO@COUNT?$AA@    100868b8     ScriptFuns.obj
 0003:000048c0       ??_C@_0L@ODNF@No?5Way?5Out?$AA@ 100868c0     ScriptFuns.obj
 0003:000048cc       ??_C@_04MGAC@SECT?$AA@     100868cc     ScriptFuns.obj
 0003:000048d4       ??_C@_0L@GOO@FightState?$AA@ 100868d4     ScriptFuns.obj
 0003:000048e0       ??_C@_0BD@HCKL@PlayerBeginMission?$AA@ 100868e0     ScriptFuns.obj
 0003:000048f4       ??_C@_0BB@LJPG@PlayerRunMission?$AA@ 100868f4     ScriptFuns.obj
 0003:00004908       ??_C@_0BB@ELKP@PlayerEndMission?$AA@ 10086908     ScriptFuns.obj
 0003:0000491c       ??_C@_02DKED@GM?$AA@       1008691c     ScriptFuns.obj
 0003:00004920       ??_C@_0DK@EGGI@Name?3?$CFs?0Lvl?3?$CFd?0IP?3?$CFs?0Lf?3?$CFd?$HM?$CFd?0Mn@ 10086920     ScriptFuns.obj
 0003:0000495c       ??_C@_0N@GDFL@IntegerValue?$AA@ 1008695c     KScriptValueSet.obj
 0003:0000496c       ??_C@_0M@PCFE@StringValue?$AA@ 1008696c     KScriptValueSet.obj
 0003:00004978       ??_C@_07FCHL@?2script?$AA@ 10086978     KSortScript.obj
 0003:00004980       ??_C@_0P@GCJH@?$LM?S?T?X?$CFs?N?D?$LM?$PO?$LD?v?$LE?m?$AA@ 10086980     KSortScript.obj
 0003:00004990       ??_C@_04GABA@?4TXT?$AA@    10086990     KSortScript.obj
 0003:00004998       ??_C@_04IBCA@?4LUA?$AA@    10086998     KSortScript.obj
 0003:000049a0       ??_C@_02OOND@?4?4?$AA@     100869a0     KSortScript.obj
 0003:000049a4       ??_C@_01PJCK@?4?$AA@       100869a4     KSortScript.obj
 0003:000049a8       ??_C@_03DCMC@?$CK?4?$CK?$AA@ 100869a8     KSortScript.obj
 0003:000049ac       ??_C@_0BN@HLJH@?$FLScript?$FNLoading?5Script?5?$CFs?5?$CFd?$AA@ 100869ac     KSortScript.obj
 0003:000049cc       ??_C@_0CJ@IBOC@?$FLScript?$FN?$LN?E?$LB?$LO?W?$NM?H?$NN?A?$LP?$LD?$KM?$LJ?$PN?$CFd?0?Q?O?V?X?$LE?m?N@ 100869cc     KSortScript.obj
 0003:000049f8       ??_C@_0DA@BCLP@?$FL?$LN?E?$LB?$LO?$FN?Q?O?V?X?$LE?m?N?s?$CB?$LN?E?$LB?$LO?J?$PN?A?$LP?$LD?$KM?O?$NO?V?F?$CFd?$KD@ 100869f8     KSortScript.obj
 0003:00004a28       ??_C@_0DF@NKLD@?$FL?$LN?E?$LB?$LO?$FN?$LM?S?T?X?$LN?E?$LB?$LO?$CFs?$KD?$KM?$LD?v?$LE?m?$KD?$KM?$LI?C?$LN?E?$LB?$LO?N?$NO@ 10086a28     KSortScript.obj
 0003:00004aa8       ??_C@_0BF@IENO@GM?5login?$FL?$CFs?$FNname?$FL?$CFs?$FN?$AA@ 10086aa8     CoreServerShell.obj
 0003:00004ac0       ??_C@_0M@POBD@Game?5Master?$AA@ 10086ac0     CoreServerShell.obj
 0003:00004acc       ??_C@_09GNFH@StartGame?$AA@ 10086acc     CoreServerShell.obj
 0003:00004ad8       ??_C@_0BJ@DIKK@?2script?2serverscript?4lua?$AA@ 10086ad8     CoreServerShell.obj
 0003:00004af4       ??_C@_0BI@FDGD@?2settings?2MagicDesc?4Ini?$AA@ 10086af4     KMagicDesc.obj
 0003:00004b0c       ??_C@_03DDGG@Nam?$AA@      10086b0c     KMagicDesc.obj
 0003:00004b10       ??_C@_03IKMI@N?w?5?$AA@    10086b10     KMagicDesc.obj
 0003:00004b14       ??_C@_03MAC@?9?$CFd?$AA@   10086b14     KMagicDesc.obj
 0003:00004b18       ??_C@_03OAHF@?$CL?$CFd?$AA@ 10086b18     KMagicDesc.obj
 0003:00004b1c       ??_C@_04PMJN@?D?Z?A?$KG?$AA@ 10086b1c     KMagicDesc.obj
 0003:00004b24       ??_C@_04NLD@?$LN?p?G?$KO?$AA@ 10086b24     KMagicDesc.obj
 0003:00004b2c       ??_C@_04JLGG@?L?e?A?$KG?$AA@ 10086b2c     KMagicDesc.obj
 0003:00004b34       ??_C@_04ELB@?I?z?C?$PM?$AA@ 10086b34     KMagicDesc.obj
 0003:00004b3c       ??_C@_06LHII@V?$KL?5H?V?5?$AA@ 10086b3c     KMagicDesc.obj
 0003:00004b44       ??_C@_07IGDD@H?V?5Th?f?5?$AA@ 10086b44     KMagicDesc.obj
 0003:00004b4c       ??_C@_06MCID@H?V?5H?aa?$AA@ 10086b4c     KMagicDesc.obj
 0003:00004b54       ??_C@_07HPFA@H?V?5Th?qy?$AA@ 10086b54     KMagicDesc.obj
 0003:00004b5c       ??_C@_06DILF@H?V?5M?ic?$AA@ 10086b5c     KMagicDesc.obj
 0003:00004b64       ??_C@_06CKED@H?V?5Kim?$AA@ 10086b64     KMagicDesc.obj
 0003:00004b6c       ??_C@_0BA@FBBO@V?b?5c?$KLng?5v?hn?5c?c?5?$AA@ 10086b6c     KMagicDesc.obj
 0003:00004b7c       ??_C@_03CJGN@?5?$FN?5?$AA@ 10086b7c     KMagicDesc.obj
 0003:00004b80       ??_C@_02BMEH@?$FL?5?$AA@   10086b80     KMagicDesc.obj
 0003:00004b84       ??_C@_08BILC@Descript?$AA@ 10086b84     KMagicDesc.obj
 0003:00004c68       ??_C@_0BN@PDBB@?2script?2missions?2breathe?4lua?$AA@ 10086c68     KMission.obj
 0003:00004c88       ??_C@_0P@OBII@MissionBreathe?$AA@ 10086c88     KMission.obj
 0003:00004c98       ??_C@_0BO@KFIK@Error?5Execute?5Script?$FL?$CFd?$FN?$CB?$CB?$CB?$CB?$CB?$AA@ 10086c98     KMission.obj
 0003:00004cb8       ??_C@_0P@PNOH@OnMissionTimer?$AA@ 10086cb8     KMission.obj
 0003:00004cc8       ?g_StationPriceUnit@@3HA   10086cc8     KTaskFuns.obj
 0003:00004ccc       ??_C@_0BP@GGDP@?$FLTASK?$FNCan?5Not?5Load?5?$CFs?0ERRRROR?$CB?$AA@ 10086ccc     KTaskFuns.obj
 0003:00004cec       ??_C@_0BI@OGNN@?2settings?2TimerTask?4txt?$AA@ 10086cec     KTaskFuns.obj
 0003:00004d04       ??_C@_06PDJ@SCRIPT?$AA@    10086d04     KTaskFuns.obj
 0003:00004d0c       ??_C@_07BLHP@OnTimer?$AA@  10086d0c     KTaskFuns.obj
 0003:00004d18       ??_R0?AVCException@Win32@OnlineGameLib@@@8 10086d18     common:Buffer.obj
 0003:00004d48       ??_C@_0BB@BJC@CBuffer?3?3AddData?$AA@ 10086d48     common:Buffer.obj
 0003:00004d5c       ??_C@_0BL@HPMM@Not?5enough?5space?5in?5buffer?$AA@ 10086d5c     common:Buffer.obj
 0003:00004d78       ??_C@_0BD@MKLK@CBuffer?3?3Release?$CI?$CJ?$AA@ 10086d78     common:Buffer.obj
 0003:00004d8c       ??_C@_0BG@EBOE@m_ref?5is?5already?5zero?$AA@ 10086d8c     common:Buffer.obj
 0003:00004da4       ??_C@_0BP@ONCE@CBuffer?3?3Allocator?3?3Allocate?$CI?$CJ?$AA@ 10086da4     common:Buffer.obj
 0003:00004dc4       ??_C@_0O@MNOP@Out?5of?5memory?$AA@ 10086dc4     common:Buffer.obj
 0003:00004dd4       ??_C@_0BO@NDNG@CBuffer?3?3Allocator?3?3Release?$CI?$CJ?$AA@ 10086dd4     common:Buffer.obj
 0003:00004df4       ??_C@_0BA@GJNE@pBuffer?5is?5null?$AA@ 10086df4     common:Buffer.obj
 0003:00004e08       ??_R0?AVexception@@@8      10086e08     libcpmt:string.obj
 0003:00004e20       ??_R0?AVlogic_error@std@@@8 10086e20     libcpmt:string.obj
 0003:00004e40       ??_R0?AVlength_error@std@@@8 10086e40     libcpmt:string.obj
 0003:00004e60       ??_R0?AVout_of_range@std@@@8 10086e60     libcpmt:string.obj
 0003:00004e80       __fltused                  10086e80     LIBCMT:fpinit.obj
 0003:00004e84       __ldused                   10086e84     LIBCMT:fpinit.obj
 0003:00004e88       __FPinit                   10086e88     LIBCMT:fpinit.obj
 0003:00004e8c       __FPmtinit                 10086e8c     LIBCMT:fpinit.obj
 0003:00004e90       __FPmtterm                 10086e90     LIBCMT:fpinit.obj
 0003:00004e94       __NLG_Destination          10086e94     LIBCMT:exsup.obj
 0003:00004eb0       __aexit_rtn                10086eb0     LIBCMT:dllcrt0.obj
 0003:00004eb8       ??_R0?AVtype_info@@@8      10086eb8     LIBCMT:typinfo.obj
 0003:00004ed0       ?__pMyUnhandledExceptionFilter@@3PAXA 10086ed0     LIBCMT:throw.obj
 0003:00004ee0       ___nullstring              10086ee0     LIBCMT:output.obj
 0003:00004ee4       ___wnullstring             10086ee4     LIBCMT:output.obj
 0003:00004ee8       __cfltcvt_tab              10086ee8     LIBCMT:cmiscdat.obj
 0003:00004f10       ___tlsindex                10086f10     LIBCMT:tidtable.obj
 0003:00004f14       ?__pInconsistency@@3P6AXXZA 10086f14     LIBCMT:hooks.obj
 0003:00004f18       __iob                      10086f18     LIBCMT:_file.obj
 0003:00005198       __amblksiz                 10087198     LIBCMT:heapinit.obj
 0003:0000519c       __locktable                1008719c     LIBCMT:mlock.obj
 0003:0000525c       ___sbh_threshold           1008725c     LIBCMT:sbheap.obj
 0003:00005260       __pctype                   10087260     LIBCMT:ctype.obj
 0003:00005264       __pwctype                  10087264     LIBCMT:ctype.obj
 0003:00005268       __ctype                    10087268     LIBCMT:ctype.obj
 0003:0000546c       ___mb_cur_max              1008746c     LIBCMT:nlsdata1.obj
 0003:00005470       ___decimal_point           10087470     LIBCMT:nlsdata1.obj
 0003:00005474       ___decimal_point_length    10087474     LIBCMT:nlsdata1.obj
 0003:00005480       __timezone                 10087480     LIBCMT:timeset.obj
 0003:00005484       __daylight                 10087484     LIBCMT:timeset.obj
 0003:00005488       __dstbias                  10087488     LIBCMT:timeset.obj
 0003:0000550c       __tzname                   1008750c     LIBCMT:timeset.obj
 0003:000057b8       ___lc_category             100877b8     LIBCMT:setlocal.obj
 0003:00005800       ___badioinfo               10087800     LIBCMT:ioinit.obj
 0003:000058f0       __XcptActTab               100878f0     LIBCMT:winxfltr.obj
 0003:00005968       __First_FPE_Indx           10087968     LIBCMT:winxfltr.obj
 0003:0000596c       __Num_FPE                  1008796c     LIBCMT:winxfltr.obj
 0003:00005970       __XcptActTabSize           10087970     LIBCMT:winxfltr.obj
 0003:00005974       __XcptActTabCount          10087974     LIBCMT:winxfltr.obj
 0003:00005978       __lpdays                   10087978     LIBCMT:days.obj
 0003:000059ac       __days                     100879ac     LIBCMT:days.obj
 0003:000059e0       ___rgLocInfo               100879e0     LIBCMT:getqloc.obj
 0003:00005e84       ___rglangidNotDefault      10087e84     LIBCMT:getqloc.obj
 0003:00005e98       ___rg_country              10087e98     LIBCMT:getqloc.obj
 0003:00005f50       ___rg_language             10087f50     LIBCMT:getqloc.obj
 0003:00006250       ___lc_time_curr            10088250     LIBCMT:strftime.obj
 0003:00006258       ___lc_time_c               10088258     LIBCMT:strftime.obj
 0003:00006308       ___lconv_static_decimal    10088308     LIBCMT:lconv.obj
 0003:00006310       ___lconv_c                 10088310     LIBCMT:lconv.obj
 0003:00006340       ___lconv                   10088340     LIBCMT:lconv.obj
 0003:00006350       __pow10pos                 10088350     LIBCMT:constpow.obj
 0003:000064b0       __pow10neg                 100884b0     LIBCMT:constpow.obj
 0003:00006610       ??_C@_00A@?$AA@            10088610     KThiefSkill.obj
 0003:00006618       ?Missle@@3PAVKMissle@@A    10088618     KMissle.obj
 0003:00a53198       ?g_MisslesLib@@3PAVKMissle@@A 10ad5198     KMissle.obj
 0003:00a8e6d0       ?g_nRandMissleTab@@3PAHA   10b106d0     KMissle.obj
 0003:00a8e860       ?MissleSet@@3VKMissleSet@@A 10b10860     KMissleSet.obj
 0003:00a8e878       ?g_SkillManager@@3VKSkillManager@@A 10b10878     KSkillManager.obj
 0003:00af2238       ?g_ulSkillCount@@3KA       10b74238     KSkillManager.obj
 0003:00af2240       ?g_Faction@@3VKFaction@@A  10b74240     KFaction.obj
 0003:00af23f8       ?g_pNpcTemplate@@3PAPAVKNpcTemplate@@A 10b743f8     KNpc.obj
 0003:00af4978       ?Npc@@3PAVKNpc@@A          10b76978     KNpc.obj
 0003:05c7e9d8       ?NpcAI@@3VKNpcAI@@A        15d009d8     KNpcAI.obj
 0003:05c7e9e0       ?g_NpcAttribModify@@3VKNpcAttribModify@@A 15d009e0     KNpcAttribModify.obj
 0003:05c7ed28       ?NpcSet@@3VKNpcSet@@A      15d00d28     KNpcSet.obj
 0003:05c7f460       ?g_ItemDropRateBinTree@@3V?$BinSTree@VKItemDropRateNode@@@@A 15d01460     KNpcTemplate.obj
 0003:05c7f470       ?g_nLastNetMsgLoop@@3HA    15d01470     KPlayer.obj
 0003:05c7f478       ?Player@@3PAVKPlayer@@A    15d01478     KPlayer.obj
 0003:0cda3a28       ?ATL_CREATE_OBJECT@CComApartment@ATL@@2IA 1ce25a28     KPlayerChat.obj
 0003:0cda3a30       ?m_libid@CComModule@ATL@@2U_GUID@@A 1ce25a30     KPlayerChat.obj
 0003:0cda3a40       ?_pModule@ATL@@3PAVCComModule@1@A 1ce25a40     KPlayerChat.obj
 0003:0cda3a48       ?g_DBMsgList@@3VKList@@A   1ce25a48     KPlayerDBFuns.obj
 0003:0cda3a60       ?PlayerSet@@3VKPlayerSet@@A 1ce25a60     KPlayerSet.obj
 0003:0cda4598       ?g_StationPriceTabFile@@3VKTabFile@@A 1ce26598     KPlayerTask.obj
 0003:0cda45b8       ?g_StationTabFile@@3VKTabFile@@A 1ce265b8     KPlayerTask.obj
 0003:0cda45d8       ?g_WayPointTabFile@@3VKTabFile@@A 1ce265d8     KPlayerTask.obj
 0003:0cda45f4       ?g_pStationPriceTab@@3PAHA 1ce265f4     KPlayerTask.obj
 0003:0cda45f8       ?g_TeamSet@@3VKTeamSet@@A  1ce265f8     KPlayerTeam.obj
 0003:0cda4600       ?g_Team@@3PAVKTeam@@A      1ce26600     KPlayerTeam.obj
 0003:0cdb47d0       ?BuySell@@3VKBuySell@@A    1ce367d0     KBuySell.obj
 0003:0cdb47e8       ?SuperShop@@3VKenSuperShop@@A 1ce367e8     KenSuperShop.obj
 0003:0cdb47f0       ?Item@@3PAVKItem@@A        1ce367f0     KItem.obj
 0003:144ea130       ?g_ItemChangeRes@@3VKItemChangeRes@@A 2456c130     KItemChangeRes.obj
 0003:144ea1d8       ?ItemGen@@3VKItemGenerator@@A 2456c1d8     KItemGenerator.obj
 0003:144eff30       ?ItemSet@@3VKItemSet@@A    24571f30     KItemSet.obj
 0003:144f0010       ?Object@@3PAVKObj@@A       24572010     KObj.obj
 0003:14b1e090       ?ObjSet@@3VKObjSet@@A      24ba0090     KObjSet.obj
 0003:14b1e0e0       ?g_WorldScript@@3VKLuaScript@@A 24ba00e0     KCore.obj
 0003:14b1e154       ?g_bDebugScript@@3HA       24ba0154     KCore.obj
 0003:14b1e158       ?g_nHandSkill@@3HA         24ba0158     KCore.obj
 0003:14b1e15c       ?g_nRangeWeaponSkill@@3PAHA 24ba015c     KCore.obj
 0003:14b1e1ac       ?g_nMeleeWeaponSkill@@3PAHA 24ba01ac     KCore.obj
 0003:14b1e200       ?g_RevivalPosFile@@3VKIniFile@@A 24ba0200     KCore.obj
 0003:14b1e2a8       ?g_MagicFile@@3VKTabFile@@A 24ba02a8     KCore.obj
 0003:14b1e2c8       ?g_NpcKindFile@@3VKTabFile@@A 24ba02c8     KCore.obj
 0003:14b1e2e8       ?g_OtherSetting@@3VKIniFile@@A 24ba02e8     KCore.obj
 0003:14b1e390       ?g_ExpandRankFile@@3VKTabFile@@A 24ba0390     KCore.obj
 0003:14b1e3b0       ?g_NpcTempName@@3VKTabFile@@A 24ba03b0     KCore.obj
 0003:14b1e3d0       ?g_GoldMagicFile@@3VKTabFile@@A 24ba03d0     KCore.obj
 0003:14b1e3f0       ?g_NpcSetting@@3VKTabFile@@A 24ba03f0     KCore.obj
 0003:14b1e410       ?g_SkillLevelSetting@@3VKTabFile@@A 24ba0410     KCore.obj
 0003:14b1e430       ?g_MisslesSetting@@3VKTabFile@@A 24ba0430     KCore.obj
 0003:14b1e450       ?g_OrdinSkillsSetting@@3VKTabFile@@A 24ba0450     KCore.obj
 0003:14b1e46c       ?g_pServer@@3PAUIServer@@A 24ba046c     KCore.obj
 0003:14b1e470       ?g_GlobalMissionArray@@3V?$KMissionArray@VKMission@@$01@@A 24ba0470     KSubWorld.obj
 0003:14b2df68       ?SubWorld@@3PAVKSubWorld@@A 24baff68     KSubWorld.obj
 0003:15464f28       ?nActiveRegionCount@@3HA   254e6f28     KSubWorldSet.obj
 0003:15464f30       ?g_SubWorldSet@@3VKSubWorldSet@@A 254e6f30     KSubWorldSet.obj
 0003:15464f3c       ?g_nConquerSeries@@3PAHA   254e6f3c     KMath.obj
 0003:15464f50       ?g_nAccrueSeries@@3PAHA    254e6f50     KMath.obj
 0003:15464f68       ?g_NewProtocolProcess@@3VKNewProtocolProcess@@A 254e6f68     KNewProtocolProcess.obj
 0003:15464fd0       ?_Nil@?$_Tree@GU?$pair@$$CBGP6AXPAUIClient@@KKHPAEH@Z@std@@U_Kfn@?$map@GP6AXPAUIClient@@KKHPAEH@ZU?$less@G@std@@V?$allocator@P6AXPAUIClient@@KKHPAEH@Z@3@@2@U?$less@G@2@V?$allocator@P6AXPAUIClient@@KKHPAEH@Z@2@@std@@1PAU_Node@12@A 254e6fd0     KNewProtocolProcess.obj
 0003:15464fd4       ?_Nilrefs@?$_Tree@GU?$pair@$$CBGP6AXPAUIClient@@KKHPAEH@Z@std@@U_Kfn@?$map@GP6AXPAUIClient@@KKHPAEH@ZU?$less@G@std@@V?$allocator@P6AXPAUIClient@@KKHPAEH@Z@3@@2@U?$less@G@2@V?$allocator@P6AXPAUIClient@@KKHPAEH@Z@2@@std@@1IA 254e6fd4     KNewProtocolProcess.obj
 0003:15464fd8       ?g_ProtocolProcess@@3VKProtocolProcess@@A 254e6fd8     KProtocolProcess.obj
 0003:154653d0       ?g_StoryScriptList@@3VKScriptList@@A 254e73d0     ScriptFuns.obj
 0003:154653e8       ?g_ScriptValueSet@@3VKScriptValueSet@@A 254e73e8     KScriptValueSet.obj
 0003:15465420       ?g_szCurScriptDir@@3PADA   254e7420     KSortScript.obj
 0003:15465524       ?nCurrentScriptNum@@3IA    254e7524     KSortScript.obj
 0003:15465528       ?g_ScriptBinTree@@3V?$BinSTree@VKSortScriptNode@@@@A 254e7528     KSortScript.obj
 0003:15465538       ?g_ScriptSet@@3PAVKLuaScript@@A 254e7538     KSortScript.obj
 0003:15580880       ?g_MagicDesc@@3VKMagicDesc@@A 25602880     KMagicDesc.obj
 0003:15580a28       ?g_TimerTask@@3VKTimerTaskFun@@A 25602a28     KTaskFuns.obj
 0003:15580a40       ?m_TimerTaskTab@KTimerTaskFun@@2VKTabFile@@A 25602a40     KTaskFuns.obj
 0003:15580a60       ?g_MissionTabFile@@3VKTabFile@@A 25602a60     KTaskFuns.obj
 0003:15580a80       ?Ladder@@3VKLadder@@A      25602a80     KLadder.obj
 0003:15582ad8       ?_Nilrefs@?$_Tree@EU?$pair@$$CBEPAVCBuffer@Win32@OnlineGameLib@@@std@@U_Kfn@?$map@EPAVCBuffer@Win32@OnlineGameLib@@U?$less@E@std@@V?$allocator@PAVCBuffer@Win32@OnlineGameLib@@@5@@2@U?$less@E@2@V?$allocator@PAVCBuffer@Win32@OnlineGameLib@@@2@@std@@1IA 25604ad8     common:Buffer.obj
 0003:15582adc       ?_Nil@?$_Tree@EU?$pair@$$CBEPAVCBuffer@Win32@OnlineGameLib@@@std@@U_Kfn@?$map@EPAVCBuffer@Win32@OnlineGameLib@@U?$less@E@std@@V?$allocator@PAVCBuffer@Win32@OnlineGameLib@@@5@@2@U?$less@E@2@V?$allocator@PAVCBuffer@Win32@OnlineGameLib@@@2@@std@@1PAU_Node@12@A 25604adc     common:Buffer.obj
 0003:15582afc       ___fastflag                25604afc     LIBCMT:fpinit.obj
 0003:15582b00       __adjust_fdiv              25604b00     LIBCMT:fpinit.obj
 0003:15582b24       __aenvptr                  25604b24     LIBCMT:dllcrt0.obj
 0003:15582b28       __wenvptr                  25604b28     LIBCMT:dllcrt0.obj
 0003:15582b2c       ___error_mode              25604b2c     LIBCMT:dllcrt0.obj
 0003:15582b30       ___app_type                25604b30     LIBCMT:dllcrt0.obj
 0003:15582b34       __umaskval                 25604b34     LIBCMT:crt0dat.obj
 0003:15582b38       __osver                    25604b38     LIBCMT:crt0dat.obj
 0003:15582b3c       __winver                   25604b3c     LIBCMT:crt0dat.obj
 0003:15582b40       __winmajor                 25604b40     LIBCMT:crt0dat.obj
 0003:15582b44       __winminor                 25604b44     LIBCMT:crt0dat.obj
 0003:15582b48       ___argc                    25604b48     LIBCMT:crt0dat.obj
 0003:15582b4c       ___argv                    25604b4c     LIBCMT:crt0dat.obj
 0003:15582b50       ___wargv                   25604b50     LIBCMT:crt0dat.obj
 0003:15582b54       __environ                  25604b54     LIBCMT:crt0dat.obj
 0003:15582b58       ___initenv                 25604b58     LIBCMT:crt0dat.obj
 0003:15582b5c       __wenviron                 25604b5c     LIBCMT:crt0dat.obj
 0003:15582b60       ___winitenv                25604b60     LIBCMT:crt0dat.obj
 0003:15582b64       __pgmptr                   25604b64     LIBCMT:crt0dat.obj
 0003:15582b68       __wpgmptr                  25604b68     LIBCMT:crt0dat.obj
 0003:15582b6c       __exitflag                 25604b6c     LIBCMT:crt0dat.obj
 0003:15582b70       __C_Termination_Done       25604b70     LIBCMT:crt0dat.obj
 0003:15582b74       __C_Exit_Done              25604b74     LIBCMT:crt0dat.obj
 0003:15582b78       __cflush                   25604b78     LIBCMT:_file.obj
 0003:15582b7c       __stdbuf                   25604b7c     LIBCMT:_sftbuf.obj
 0003:15582b84       __newmode                  25604b84     LIBCMT:_newmode.obj
 0003:15582b88       ?_pnhHeap@@3P6AHI@ZA       25604b88     LIBCMT:handler.obj
 0003:15582d04       ___lc_handle               25604d04     LIBCMT:nlsdata2.obj
 0003:15582d1c       ___lc_codepage             25604d1c     LIBCMT:nlsdata2.obj
 0003:15582d20       ___lc_collate_cp           25604d20     LIBCMT:nlsdata2.obj
 0003:15582e2c       __adbgmsg                  25604e2c     LIBCMT:crt0msg.obj
 0003:15582e38       __commode                  25604e38     LIBCMT:ncommode.obj
 0003:15582e3c       ___lc_time_intl            25604e3c     LIBCMT:inittime.obj
 0003:15582e58       ___lc_id                   25604e58     LIBCMT:nlsdata3.obj
 0003:15582ec4       __fmode                    25604ec4     LIBCMT:txtmode.obj
 0003:15582ed0       ___lconv_static_null       25604ed0     LIBCMT:lconv.obj
 0003:15582ee4       ___@@_PchSym_@00@UqcUhdilwDUhdliwlmormvUhlfixvhUxlivUhvieviivovzhvUhgwzucOlyq@ 25604ee4     <common>
 0003:15582ee8       ??_B?1???id@?$ctype@G@std@@$D@@9@51 25604ee8     <common>
 0003:15582ee9       ??_B?1???id@?$collate@D@std@@$D@@9@51 25604ee9     <common>
 0003:15582eec       ___alternate_form          25604eec     <common>
 0003:15582ef0       ___no_lead_zeros           25604ef0     <common>
 0003:15582ef4       ___mbcodepage              25604ef4     <common>
 0003:15582f00       ___mbulinfo                25604f00     <common>
 0003:15582f0c       ___ismbcodepage            25604f0c     <common>
 0003:15582f20       __mbcasemap                25604f20     <common>
 0003:15583020       __mbctype                  25605020     <common>
 0003:15583124       ___mblcid                  25605124     <common>
 0003:15583140       ___pioinfo                 25605140     <common>
 0003:15583240       __nhandle                  25605240     <common>
 0003:15583244       ___setlc_active            25605244     <common>
 0003:15583248       ___unguarded_readlc_active 25605248     <common>
 0003:1558324c       ___sbh_sizeHeaderList      2560524c     <common>
 0003:15583250       ___sbh_indGroupDefer       25605250     <common>
 0003:15583254       ___sbh_pHeaderScan         25605254     <common>
 0003:15583258       ___sbh_pHeaderDefer        25605258     <common>
 0003:1558325c       ___sbh_cntHeaderList       2560525c     <common>
 0003:15583260       ___sbh_pHeaderList         25605260     <common>
 0003:15583264       __crtheap                  25605264     <common>
 0003:15583268       ___piob                    25605268     <common>
 0003:15583280       __bufin                    25605280     <common>
 0003:15584280       __nstream                  25606280     <common>
 0003:15584284       ___env_initialized         25606284     <common>
 0003:15584288       ___mbctype_initialized     25606288     <common>
 0003:1558428c       ___onexitend               2560628c     <common>
 0003:15584290       ___onexitbegin             25606290     <common>
 0003:15584294       __acmdln                   25606294     <common>
 0003:15584298       __pRawDllMain              25606298     <common>

 entry point at        0001:00066c36

 Static symbols

 0001:000619d0       _$E6                       100629d0 f   KLadder.obj
 0001:000619e0       _$E3                       100629e0 f   KLadder.obj
 0001:000619f0       _$E5                       100629f0 f   KLadder.obj
 0001:00061a00       _$E4                       10062a00 f   KLadder.obj
 0001:00061660       _$E8                       10062660 f   KTaskFuns.obj
 0001:00061670       _$E5                       10062670 f   KTaskFuns.obj
 0001:00061680       _$E7                       10062680 f   KTaskFuns.obj
 0001:00061690       _$E6                       10062690 f   KTaskFuns.obj
 0001:00061760       _$E14                      10062760 f   KTaskFuns.obj
 0001:00061770       _$E10                      10062770 f   KTaskFuns.obj
 0001:00061780       _$E13                      10062780 f   KTaskFuns.obj
 0001:00061790       _$E11                      10062790 f   KTaskFuns.obj
 0001:00061980       _$E17                      10062980 f   KTaskFuns.obj
 0001:00061990       _$E16                      10062990 f   KTaskFuns.obj
 0001:00060c50       _$E6                       10061c50 f   KMagicDesc.obj
 0001:00060c60       _$E3                       10061c60 f   KMagicDesc.obj
 0001:00060c70       _$E5                       10061c70 f   KMagicDesc.obj
 0001:00060c80       _$E4                       10061c80 f   KMagicDesc.obj
 0001:0005e6f0       _$E24                      1005f6f0 f   CoreServerShell.obj
 0001:0005e700       _$E23                      1005f700 f   CoreServerShell.obj
 0001:00060c20       _$E31                      10061c20 f   CoreServerShell.obj
 0001:00060c40       _$E30                      10061c40 f   CoreServerShell.obj
 0001:0005dce0       _$E6                       1005ece0 f   KSortScript.obj
 0001:0005dcf0       _$E3                       1005ecf0 f   KSortScript.obj
 0001:0005dd10       _$E5                       1005ed10 f   KSortScript.obj
 0001:0005dd20       _$E4                       1005ed20 f   KSortScript.obj
 0001:0005dd40       _$E11                      1005ed40 f   KSortScript.obj
 0001:0005dd50       _$E8                       1005ed50 f   KSortScript.obj
 0001:0005dd70       _$E10                      1005ed70 f   KSortScript.obj
 0001:0005dd80       _$E9                       1005ed80 f   KSortScript.obj
 0001:0005de50       ?LoadAllScript@@YAKPAD@Z   1005ee50 f   KSortScript.obj
 0001:0005e1d0       ?LoadScriptToSortList@@YAHPAD@Z 1005f1d0 f   KSortScript.obj
 0001:0005e2d0       ?LoadScriptToSortListA@@YAHPAD@Z 1005f2d0 f   KSortScript.obj
 0001:0005d490       _$E6                       1005e490 f   KScriptValueSet.obj
 0001:0005d4a0       _$E3                       1005e4a0 f   KScriptValueSet.obj
 0001:0005d4b0       _$E5                       1005e4b0 f   KScriptValueSet.obj
 0001:0005d4c0       _$E4                       1005e4c0 f   KScriptValueSet.obj
 0001:0004be50       _$E26                      1004ce50 f   ScriptFuns.obj
 0001:0004be60       _$E23                      1004ce60 f   ScriptFuns.obj
 0001:0004be70       _$E25                      1004ce70 f   ScriptFuns.obj
 0001:0004be80       _$E24                      1004ce80 f   ScriptFuns.obj
 0001:0005d460       _$E33                      1005e460 f   ScriptFuns.obj
 0001:0005d480       _$E32                      1005e480 f   ScriptFuns.obj
 0001:000499b0       _$E8                       1004a9b0 f   KProtocolProcess.obj
 0001:000499c0       _$E5                       1004a9c0 f   KProtocolProcess.obj
 0001:000499d0       _$E7                       1004a9d0 f   KProtocolProcess.obj
 0001:000499e0       _$E6                       1004a9e0 f   KProtocolProcess.obj
 0001:00048020       _$E26                      10049020 f   KNewProtocolProcess.obj
 0001:00048030       _$E23                      10049030 f   KNewProtocolProcess.obj
 0001:00048040       _$E25                      10049040 f   KNewProtocolProcess.obj
 0001:00048050       _$E24                      10049050 f   KNewProtocolProcess.obj
 0001:00049940       _$E33                      1004a940 f   KNewProtocolProcess.obj
 0001:00049960       _$E32                      1004a960 f   KNewProtocolProcess.obj
 0001:00047ff0       _$E28                      10048ff0 f   KGMProcess.obj
 0001:00048010       _$E27                      10049010 f   KGMProcess.obj
 0001:00045e00       _$E6                       10046e00 f   KSubWorldSet.obj
 0001:00045e10       _$E5                       10046e10 f   KSubWorldSet.obj
 0001:00043500       _$E8                       10044500 f   KSubWorld.obj
 0001:00043510       _$E5                       10044510 f   KSubWorld.obj
 0001:00043530       _$E7                       10044530 f   KSubWorld.obj
 0001:00043540       _$E6                       10044540 f   KSubWorld.obj
 0001:00043560       _$E13                      10044560 f   KSubWorld.obj
 0001:00043570       _$E10                      10044570 f   KSubWorld.obj
 0001:00043580       _$E12                      10044580 f   KSubWorld.obj
 0001:00043590       _$E11                      10044590 f   KSubWorld.obj
 0001:00042a00       _$E18                      10043a00 f   KCore.obj
 0001:00042a10       _$E15                      10043a10 f   KCore.obj
 0001:00042a30       _$E17                      10043a30 f   KCore.obj
 0001:00042a40       _$E16                      10043a40 f   KCore.obj
 0001:00042a60       _$E23                      10043a60 f   KCore.obj
 0001:00042a70       _$E20                      10043a70 f   KCore.obj
 0001:00042a80       _$E22                      10043a80 f   KCore.obj
 0001:00042a90       _$E21                      10043a90 f   KCore.obj
 0001:00042aa0       _$E28                      10043aa0 f   KCore.obj
 0001:00042ab0       _$E25                      10043ab0 f   KCore.obj
 0001:00042ac0       _$E27                      10043ac0 f   KCore.obj
 0001:00042ad0       _$E26                      10043ad0 f   KCore.obj
 0001:00042ae0       _$E33                      10043ae0 f   KCore.obj
 0001:00042af0       _$E30                      10043af0 f   KCore.obj
 0001:00042b00       _$E32                      10043b00 f   KCore.obj
 0001:00042b10       _$E31                      10043b10 f   KCore.obj
 0001:00042b20       _$E38                      10043b20 f   KCore.obj
 0001:00042b30       _$E35                      10043b30 f   KCore.obj
 0001:00042b40       _$E37                      10043b40 f   KCore.obj
 0001:00042b50       _$E36                      10043b50 f   KCore.obj
 0001:00042b60       _$E43                      10043b60 f   KCore.obj
 0001:00042b70       _$E40                      10043b70 f   KCore.obj
 0001:00042b80       _$E42                      10043b80 f   KCore.obj
 0001:00042b90       _$E41                      10043b90 f   KCore.obj
 0001:00042ba0       _$E48                      10043ba0 f   KCore.obj
 0001:00042bb0       _$E45                      10043bb0 f   KCore.obj
 0001:00042bc0       _$E47                      10043bc0 f   KCore.obj
 0001:00042bd0       _$E46                      10043bd0 f   KCore.obj
 0001:00042be0       _$E53                      10043be0 f   KCore.obj
 0001:00042bf0       _$E50                      10043bf0 f   KCore.obj
 0001:00042c00       _$E52                      10043c00 f   KCore.obj
 0001:00042c10       _$E51                      10043c10 f   KCore.obj
 0001:00042c20       _$E58                      10043c20 f   KCore.obj
 0001:00042c30       _$E55                      10043c30 f   KCore.obj
 0001:00042c40       _$E57                      10043c40 f   KCore.obj
 0001:00042c50       _$E56                      10043c50 f   KCore.obj
 0001:00042c60       _$E63                      10043c60 f   KCore.obj
 0001:00042c70       _$E60                      10043c70 f   KCore.obj
 0001:00042c80       _$E62                      10043c80 f   KCore.obj
 0001:00042c90       _$E61                      10043c90 f   KCore.obj
 0001:00042ca0       _$E68                      10043ca0 f   KCore.obj
 0001:00042cb0       _$E65                      10043cb0 f   KCore.obj
 0001:00042cc0       _$E67                      10043cc0 f   KCore.obj
 0001:00042cd0       _$E66                      10043cd0 f   KCore.obj
 0001:000434d0       _$E75                      100444d0 f   KCore.obj
 0001:000434f0       _$E74                      100444f0 f   KCore.obj
 0001:000418d0       _$E6                       100428d0 f   KObjSet.obj
 0001:000418e0       _$E3                       100428e0 f   KObjSet.obj
 0001:000418f0       _$E5                       100428f0 f   KObjSet.obj
 0001:00041900       _$E4                       10042900 f   KObjSet.obj
 0001:00040620       _$E6                       10041620 f   KObj.obj
 0001:00040630       _$E5                       10041630 f   KObj.obj
 0001:000400d0       _$E6                       100410d0 f   KItemSet.obj
 0001:000400e0       _$E3                       100410e0 f   KItemSet.obj
 0001:000400f0       _$E5                       100410f0 f   KItemSet.obj
 0001:00040100       _$E4                       10041100 f   KItemSet.obj
 0001:00038fe0       _$E6                       10039fe0 f   KItemGenerator.obj
 0001:00038ff0       _$E3                       10039ff0 f   KItemGenerator.obj
 0001:00039000       _$E5                       1003a000 f   KItemGenerator.obj
 0001:00039010       _$E4                       1003a010 f   KItemGenerator.obj
 0001:00038c80       _$E6                       10039c80 f   KItemChangeRes.obj
 0001:00038c90       _$E3                       10039c90 f   KItemChangeRes.obj
 0001:00038ca0       _$E5                       10039ca0 f   KItemChangeRes.obj
 0001:00038cb0       _$E4                       10039cb0 f   KItemChangeRes.obj
 0001:00037bf0       _$E18                      10038bf0 f   KItem.obj
 0001:00037c00       _$E15                      10038c00 f   KItem.obj
 0001:00037c20       _$E17                      10038c20 f   KItem.obj
 0001:00037c30       _$E16                      10038c30 f   KItem.obj
 0001:00038c50       _$E25                      10039c50 f   KItem.obj
 0001:00038c70       _$E24                      10039c70 f   KItem.obj
 0001:00036c70       _$E8                       10037c70 f   KenSuperShop.obj
 0001:00036c80       _$E5                       10037c80 f   KenSuperShop.obj
 0001:00036c90       _$E7                       10037c90 f   KenSuperShop.obj
 0001:00036ca0       _$E6                       10037ca0 f   KenSuperShop.obj
 0001:00035fd0       _$E8                       10036fd0 f   KBuySell.obj
 0001:00035fe0       _$E5                       10036fe0 f   KBuySell.obj
 0001:00035ff0       _$E7                       10036ff0 f   KBuySell.obj
 0001:00036000       _$E6                       10037000 f   KBuySell.obj
 0001:00030710       _$E6                       10031710 f   KPlayerTeam.obj
 0001:00030720       _$E5                       10031720 f   KPlayerTeam.obj
 0001:00030550       _$E6                       10031550 f   KPlayerTask.obj
 0001:00030560       _$E3                       10031560 f   KPlayerTask.obj
 0001:00030570       _$E5                       10031570 f   KPlayerTask.obj
 0001:00030580       _$E4                       10031580 f   KPlayerTask.obj
 0001:00030590       _$E11                      10031590 f   KPlayerTask.obj
 0001:000305a0       _$E8                       100315a0 f   KPlayerTask.obj
 0001:000305b0       _$E10                      100315b0 f   KPlayerTask.obj
 0001:000305c0       _$E9                       100315c0 f   KPlayerTask.obj
 0001:000305d0       _$E16                      100315d0 f   KPlayerTask.obj
 0001:000305e0       _$E13                      100315e0 f   KPlayerTask.obj
 0001:000305f0       _$E15                      100315f0 f   KPlayerTask.obj
 0001:00030600       _$E14                      10031600 f   KPlayerTask.obj
 0001:0002dcf0       _$E20                      1002ecf0 f   KPlayerSet.obj
 0001:0002dd00       _$E17                      1002ed00 f   KPlayerSet.obj
 0001:0002dd10       _$E19                      1002ed10 f   KPlayerSet.obj
 0001:0002dd20       _$E18                      1002ed20 f   KPlayerSet.obj
 0001:00030520       _$E27                      10031520 f   KPlayerSet.obj
 0001:00030540       _$E26                      10031540 f   KPlayerSet.obj
 0001:0002b020       _$E20                      1002c020 f   KPlayerDBFuns.obj
 0001:0002b030       _$E17                      1002c030 f   KPlayerDBFuns.obj
 0001:0002b070       _$E19                      1002c070 f   KPlayerDBFuns.obj
 0001:0002b080       _$E18                      1002c080 f   KPlayerDBFuns.obj
 0001:0002c920       _$E27                      1002d920 f   KPlayerDBFuns.obj
 0001:0002c940       _$E26                      1002d940 f   KPlayerDBFuns.obj
 0001:0002aff0       _$E28                      1002bff0 f   KPlayerChat.obj
 0001:0002b010       _$E27                      1002c010 f   KPlayerChat.obj
 0001:0001be20       _$E20                      1001ce20 f   KPlayer.obj
 0001:0001be30       _$E17                      1001ce30 f   KPlayer.obj
 0001:0001be50       _$E19                      1001ce50 f   KPlayer.obj
 0001:0001be60       _$E18                      1001ce60 f   KPlayer.obj
 0001:00029480       _$E27                      1002a480 f   KPlayer.obj
 0001:000294a0       _$E26                      1002a4a0 f   KPlayer.obj
 0001:0001b3e0       _$E6                       1001c3e0 f   KNpcTemplate.obj
 0001:0001b3f0       _$E3                       1001c3f0 f   KNpcTemplate.obj
 0001:0001b410       _$E5                       1001c410 f   KNpcTemplate.obj
 0001:0001b420       _$E4                       1001c420 f   KNpcTemplate.obj
 0001:0001a0c0       _$E8                       1001b0c0 f   KNpcSet.obj
 0001:0001a0d0       _$E5                       1001b0d0 f   KNpcSet.obj
 0001:0001a0e0       _$E7                       1001b0e0 f   KNpcSet.obj
 0001:0001a0f0       _$E6                       1001b0f0 f   KNpcSet.obj
 0001:00017500       _$E10                      10018500 f   KNpcAttribModify.obj
 0001:00017510       _$E7                       10018510 f   KNpcAttribModify.obj
 0001:00017520       _$E9                       10018520 f   KNpcAttribModify.obj
 0001:00017530       _$E8                       10018530 f   KNpcAttribModify.obj
 0001:000157a0       _$E6                       100167a0 f   KNpcAI.obj
 0001:000157b0       _$E5                       100167b0 f   KNpcAI.obj
 0001:00009b20       _$E10                      1000ab20 f   KNpc.obj
 0001:00009b30       _$E7                       1000ab30 f   KNpc.obj
 0001:00009b50       _$E9                       1000ab50 f   KNpc.obj
 0001:00009b60       _$E8                       1000ab60 f   KNpc.obj
 0001:000042b0       _$E8                       100052b0 f   KSkillManager.obj
 0001:000042c0       _$E5                       100052c0 f   KSkillManager.obj
 0001:000042d0       _$E7                       100052d0 f   KSkillManager.obj
 0001:000042e0       _$E6                       100052e0 f   KSkillManager.obj
 0001:00004270       _$E22                      10005270 f   KSkillList.obj
 0001:00004290       _$E21                      10005290 f   KSkillList.obj
 0001:000033b0       _$E6                       100043b0 f   KMissleSet.obj
 0001:000033c0       _$E3                       100043c0 f   KMissleSet.obj
 0001:000033d0       _$E5                       100043d0 f   KMissleSet.obj
 0001:000033e0       _$E4                       100043e0 f   KMissleSet.obj
 0001:00000b90       _$E8                       10001b90 f   KMissle.obj
 0001:00000ba0       _$E5                       10001ba0 f   KMissle.obj
 0001:00000bc0       _$E7                       10001bc0 f   KMissle.obj
 0001:00000bd0       _$E6                       10001bd0 f   KMissle.obj
 0001:00000bf0       _$E13                      10001bf0 f   KMissle.obj
 0001:00000c00       _$E10                      10001c00 f   KMissle.obj
 0001:00000c20       _$E12                      10001c20 f   KMissle.obj
 0001:00000c30       _$E11                      10001c30 f   KMissle.obj
 0001:00064f90       _$E19                      10065f90 f   common:Exception.obj
 0001:00064fb0       _$E18                      10065fb0 f   common:Exception.obj
 0001:000649b0       _$E23                      100659b0 f   common:Buffer.obj
 0001:000649d0       _$E22                      100659d0 f   common:Buffer.obj
 0001:00065390       _$E24                      10066390 f   libcpmt:string.obj
 0001:000653ba       _$E20                      100663ba f   libcpmt:string.obj
 0001:000653c6       _$E23                      100663c6 f   libcpmt:string.obj
 0001:00065049       ?_CleanUp@std@@YAXXZ       10066049 f   libcpmt:xlock.obj
 0001:0007228c       _findenv                   1007328c f   LIBCMT:setenv.obj
 0001:000722e4       _copy_environ              100732e4 f   LIBCMT:setenv.obj
 0001:000720da       _strncnt                   100730da f   LIBCMT:a_cmp.obj
 0001:00071875       _xtoa                      10072875 f   LIBCMT:xtoa.obj
 0001:00071947       _x64toa@20                 10072947 f   LIBCMT:xtoa.obj
 0001:00070da8       __expandtime               10071da8 f   LIBCMT:strftime.obj
 0001:00071197       __store_str                10072197 f   LIBCMT:strftime.obj
 0001:000711be       __store_num                100721be f   LIBCMT:strftime.obj
 0001:0007122d       __store_number             1007222d f   LIBCMT:strftime.obj
 0001:00071276       __store_winword            10072276 f   LIBCMT:strftime.obj
 0001:0006f960       _ctrlevent_capture@4       10070960 f   LIBCMT:winsig.obj
 0001:0006fb44       _siglookup                 10070b44 f   LIBCMT:winsig.obj
 0001:0006f4fe       _getSystemCP               100704fe f   LIBCMT:mbctype.obj
 0001:0006f548       _CPtoLCID                  10070548 f   LIBCMT:mbctype.obj
 0001:0006f57b       _setSBCS                   1007057b f   LIBCMT:mbctype.obj
 0001:0006f5a4       _setSBUpLow                100705a4 f   LIBCMT:mbctype.obj
 0001:0006ec27       _TranslateName             1006fc27 f   LIBCMT:getqloc.obj
 0001:0006ec7f       _GetLcidFromLangCountry    1006fc7f f   LIBCMT:getqloc.obj
 0001:0006ed06       _LangCountryEnumProc@4     1006fd06 f   LIBCMT:getqloc.obj
 0001:0006ef0a       _GetLcidFromLanguage       1006ff0a f   LIBCMT:getqloc.obj
 0001:0006ef60       _LanguageEnumProc@4        1006ff60 f   LIBCMT:getqloc.obj
 0001:0006f01d       _GetLcidFromCountry        1007001d f   LIBCMT:getqloc.obj
 0001:0006f054       _CountryEnumProc@4         10070054 f   LIBCMT:getqloc.obj
 0001:0006f0da       _GetLcidFromDefault        100700da f   LIBCMT:getqloc.obj
 0001:0006f0f4       _ProcessCodePage           100700f4 f   LIBCMT:getqloc.obj
 0001:0006f15a       _TestDefaultCountry        1007015a f   LIBCMT:getqloc.obj
 0001:0006f179       _TestDefaultLanguage       10070179 f   LIBCMT:getqloc.obj
 0001:0006f1db       _IsThisWindowsNT           100701db f   LIBCMT:getqloc.obj
 0001:0006f211       _crtGetLocaleInfoA@16      10070211 f   LIBCMT:getqloc.obj
 0001:0006f2f7       _LcidFromHexString         100702f7 f   LIBCMT:getqloc.obj
 0001:0006f330       _GetPrimaryLen             10070330 f   LIBCMT:getqloc.obj
 0001:0006e5fc       __get_lc_lconv             1006f5fc f   LIBCMT:initmon.obj
 0001:0006e71e       _fix_grouping              1006f71e f   LIBCMT:initmon.obj
 0001:0006e755       __free_lc_lconv            1006f755 f   LIBCMT:initmon.obj
 0001:0006e4fa       _fix_grouping              1006f4fa f   LIBCMT:initnum.obj
 0001:0006de47       __get_lc_time              1006ee47 f   LIBCMT:inittime.obj
 0001:0006e195       __free_lc_time             1006f195 f   LIBCMT:inittime.obj
 0001:0006d3fc       _xcptlookup                1006e3fc f   LIBCMT:winxfltr.obj
 0001:0006c8c2       __abstract_cw              1006d8c2 f   LIBCMT:ieee87.obj
 0001:0006c954       __hw_cw                    1006d954 f   LIBCMT:ieee87.obj
 0001:0006c9dd       __abstract_sw              1006d9dd f   LIBCMT:ieee87.obj
 0001:0006bf9f       _parse_cmdline             1006cf9f f   LIBCMT:stdargv.obj
 0001:0006b80a       __setlocale_set_cat        1006c80a f   LIBCMT:setlocal.obj
 0001:0006b925       __setlocale_get_all        1006c925 f   LIBCMT:setlocal.obj
 0001:0006b599       _strncnt                   1006c599 f   LIBCMT:a_map.obj
 0001:0006ac57       _flsall                    1006bc57 f   LIBCMT:fflush.obj
 0001:0006a3ec       __tzset_lk                 1006b3ec f   LIBCMT:tzset.obj
 0001:0006a694       __isindst_lk               1006b694 f   LIBCMT:tzset.obj
 0001:0006a840       _cvtdate                   1006b840 f   LIBCMT:tzset.obj
 0001:0006a2be       _store_dt                  1006b2be f   LIBCMT:asctime.obj
 0001:00068ca1       _doexit                    10069ca1 f   LIBCMT:crt0dat.obj
 0001:00068d58       __initterm                 10069d58 f   LIBCMT:crt0dat.obj
 0001:00068121       ?FindHandler@@YAXPAUEHExceptionRecord@@PAUEHRegistrationNode@@PAU_CONTEXT@@PAXPBU_s_FuncInfo@@EH1@Z 10069121 f   LIBCMT:frame.obj
 0001:000682d4       ?FindHandlerForForeignException@@YAXPAUEHExceptionRecord@@PAUEHRegistrationNode@@PAU_CONTEXT@@PAXPBU_s_FuncInfo@@HH1@Z 100692d4 f   LIBCMT:frame.obj
 0001:0006837e       ?TypeMatch@@YAHPBU_s_HandlerType@@PBU_s_CatchableType@@PBU_s_ThrowInfo@@@Z 1006937e f   LIBCMT:frame.obj
 0001:00068479       ?FrameUnwindFilter@@YAHPAU_EXCEPTION_POINTERS@@@Z 10069479 f   LIBCMT:frame.obj
 0001:0006848f       ?CatchIt@@YAXPAUEHExceptionRecord@@PAUEHRegistrationNode@@PAU_CONTEXT@@PAXPBU_s_FuncInfo@@PBU_s_HandlerType@@PBU_s_CatchableType@@PBU_s_TryBlockMapEntry@@H1E@Z 1006948f f   LIBCMT:frame.obj
 0001:0006850a       ?CallCatchBlock@@YAPAXPAUEHExceptionRecord@@PAUEHRegistrationNode@@PAU_CONTEXT@@PBU_s_FuncInfo@@PAXHK@Z 1006950a f   LIBCMT:frame.obj
 0001:00068625       ?ExFilterRethrow@@YAHPAU_EXCEPTION_POINTERS@@@Z 10069625 f   LIBCMT:frame.obj
 0001:0006864f       ?BuildCatchObject@@YAXPAUEHExceptionRecord@@PAUEHRegistrationNode@@PBU_s_HandlerType@@PBU_s_CatchableType@@@Z 1006964f f   LIBCMT:frame.obj
 0001:0006887a       ?AdjustPointer@@YAPAXPAXABUPMD@@@Z 1006987a f   LIBCMT:frame.obj
 0001:00067dbf       __cftoe2                   10068dbf f   LIBCMT:cvt.obj
 0001:00067ed6       __cftof2                   10068ed6 f   LIBCMT:cvt.obj
 0001:00068061       __shift                    10069061 f   LIBCMT:cvt.obj
 0001:00067b1e       _write_char                10068b1e f   LIBCMT:output.obj
 0001:00067b53       _write_multi_char          10068b53 f   LIBCMT:output.obj
 0001:00067b84       _write_string              10068b84 f   LIBCMT:output.obj
 0001:00067bbc       _get_int_arg               10068bbc f   LIBCMT:output.obj
 0001:00067bc9       _get_int64_arg             10068bc9 f   LIBCMT:output.obj
 0001:00067bd9       _get_short_arg             10068bd9 f   LIBCMT:output.obj
 0001:00067000       LeadUp1                    10068000 f   LIBCMT:memcpy.obj
 0001:0006702c       LeadUp2                    1006802c f   LIBCMT:memcpy.obj
 0001:00067050       LeadUp3                    10068050 f   LIBCMT:memcpy.obj
 0001:000670cf       UnwindUp0                  100680cf f   LIBCMT:memcpy.obj
 0001:000670bc       UnwindUp1                  100680bc f   LIBCMT:memcpy.obj
 0001:000670b4       UnwindUp2                  100680b4 f   LIBCMT:memcpy.obj
 0001:000670ac       UnwindUp3                  100680ac f   LIBCMT:memcpy.obj
 0001:000670a4       UnwindUp4                  100680a4 f   LIBCMT:memcpy.obj
 0001:0006709c       UnwindUp5                  1006809c f   LIBCMT:memcpy.obj
 0001:00067094       UnwindUp6                  10068094 f   LIBCMT:memcpy.obj
 0001:0006708c       UnwindUp7                  1006808c f   LIBCMT:memcpy.obj
 0001:000670e8       TrailUp0                   100680e8 f   LIBCMT:memcpy.obj
 0001:000670f0       TrailUp1                   100680f0 f   LIBCMT:memcpy.obj
 0001:000670fc       TrailUp2                   100680fc f   LIBCMT:memcpy.obj
 0001:00067110       TrailUp3                   10068110 f   LIBCMT:memcpy.obj
 0001:00067188       LeadDown1                  10068188 f   LIBCMT:memcpy.obj
 0001:000671a8       LeadDown2                  100681a8 f   LIBCMT:memcpy.obj
 0001:000671d0       LeadDown3                  100681d0 f   LIBCMT:memcpy.obj
 0001:00067224       UnwindDown7                10068224 f   LIBCMT:memcpy.obj
 0001:0006722c       UnwindDown6                1006822c f   LIBCMT:memcpy.obj
 0001:00067234       UnwindDown5                10068234 f   LIBCMT:memcpy.obj
 0001:0006723c       UnwindDown4                1006823c f   LIBCMT:memcpy.obj
 0001:00067244       UnwindDown3                10068244 f   LIBCMT:memcpy.obj
 0001:0006724c       UnwindDown2                1006824c f   LIBCMT:memcpy.obj
 0001:00067254       UnwindDown1                10068254 f   LIBCMT:memcpy.obj
 0001:00067267       UnwindDown0                10068267 f   LIBCMT:memcpy.obj
 0001:00067280       TrailDown0                 10068280 f   LIBCMT:memcpy.obj
 0001:00067288       TrailDown1                 10068288 f   LIBCMT:memcpy.obj
 0001:00067298       TrailDown2                 10068298 f   LIBCMT:memcpy.obj
 0001:000672ac       TrailDown3                 100682ac f   LIBCMT:memcpy.obj
 0001:00065bb0       LeadUp1                    10066bb0 f   LIBCMT:memmove.obj
 0001:00065bdc       LeadUp2                    10066bdc f   LIBCMT:memmove.obj
 0001:00065c00       LeadUp3                    10066c00 f   LIBCMT:memmove.obj
 0001:00065c7f       UnwindUp0                  10066c7f f   LIBCMT:memmove.obj
 0001:00065c6c       UnwindUp1                  10066c6c f   LIBCMT:memmove.obj
 0001:00065c64       UnwindUp2                  10066c64 f   LIBCMT:memmove.obj
 0001:00065c5c       UnwindUp3                  10066c5c f   LIBCMT:memmove.obj
 0001:00065c54       UnwindUp4                  10066c54 f   LIBCMT:memmove.obj
 0001:00065c4c       UnwindUp5                  10066c4c f   LIBCMT:memmove.obj
 0001:00065c44       UnwindUp6                  10066c44 f   LIBCMT:memmove.obj
 0001:00065c3c       UnwindUp7                  10066c3c f   LIBCMT:memmove.obj
 0001:00065c98       TrailUp0                   10066c98 f   LIBCMT:memmove.obj
 0001:00065ca0       TrailUp1                   10066ca0 f   LIBCMT:memmove.obj
 0001:00065cac       TrailUp2                   10066cac f   LIBCMT:memmove.obj
 0001:00065cc0       TrailUp3                   10066cc0 f   LIBCMT:memmove.obj
 0001:00065d38       LeadDown1                  10066d38 f   LIBCMT:memmove.obj
 0001:00065d58       LeadDown2                  10066d58 f   LIBCMT:memmove.obj
 0001:00065d80       LeadDown3                  10066d80 f   LIBCMT:memmove.obj
 0001:00065dd4       UnwindDown7                10066dd4 f   LIBCMT:memmove.obj
 0001:00065ddc       UnwindDown6                10066ddc f   LIBCMT:memmove.obj
 0001:00065de4       UnwindDown5                10066de4 f   LIBCMT:memmove.obj
 0001:00065dec       UnwindDown4                10066dec f   LIBCMT:memmove.obj
 0001:00065df4       UnwindDown3                10066df4 f   LIBCMT:memmove.obj
 0001:00065dfc       UnwindDown2                10066dfc f   LIBCMT:memmove.obj
 0001:00065e04       UnwindDown1                10066e04 f   LIBCMT:memmove.obj
 0001:00065e17       UnwindDown0                10066e17 f   LIBCMT:memmove.obj
 0001:00065e30       TrailDown0                 10066e30 f   LIBCMT:memmove.obj
 0001:00065e38       TrailDown1                 10066e38 f   LIBCMT:memmove.obj
 0001:00065e48       TrailDown2                 10066e48 f   LIBCMT:memmove.obj
 0001:00065e5c       TrailDown3                 10066e5c f   LIBCMT:memmove.obj
 0001:00065acd       ?ArrayUnwindFilter@@YAHPAU_EXCEPTION_POINTERS@@@Z 10066acd f   LIBCMT:ehvecdtr.obj
 0001:000657d8       _gu_return                 100667d8 f   LIBCMT:exsup.obj
 0001:000657e0       __unwind_handler           100667e0 f   LIBCMT:exsup.obj
 0001:000655f3       ?CatchGuardHandler@@YA?AW4_EXCEPTION_DISPOSITION@@PAUEHExceptionRecord@@PAUCatchGuardRN@@PAX2@Z 100665f3 f   LIBCMT:trnsctrl.obj
 0001:000656ce       ?TranslatorGuardHandler@@YA?AW4_EXCEPTION_DISPOSITION@@PAUEHExceptionRecord@@PAUTranslatorGuardRN@@PAX2@Z 100666ce f   LIBCMT:trnsctrl.obj
